ARM GAS  C:\Users\82057\AppData\Local\Temp\ccO4yw0o.s 			page 1


   1              		.cpu cortex-m4
   2              		.eabi_attribute 27, 1
   3              		.eabi_attribute 28, 1
   4              		.eabi_attribute 20, 1
   5              		.eabi_attribute 21, 1
   6              		.eabi_attribute 23, 3
   7              		.eabi_attribute 24, 1
   8              		.eabi_attribute 25, 1
   9              		.eabi_attribute 26, 1
  10              		.eabi_attribute 30, 1
  11              		.eabi_attribute 34, 1
  12              		.eabi_attribute 18, 4
  13              		.file	"syscalls.c"
  14              		.text
  15              	.Ltext0:
  16              		.cfi_sections	.debug_frame
  17              		.section	.text.initialise_monitor_handles,"ax",%progbits
  18              		.align	1
  19              		.global	initialise_monitor_handles
  20              		.syntax unified
  21              		.thumb
  22              		.thumb_func
  23              		.fpu fpv4-sp-d16
  25              	initialise_monitor_handles:
  26              	.LFB19:
  27              		.file 1 "Src/syscalls.c"
   1:Src/syscalls.c **** /**
   2:Src/syscalls.c ****  ******************************************************************************
   3:Src/syscalls.c ****  * @file      syscalls.c
   4:Src/syscalls.c ****  * @author    Auto-generated by STM32CubeMX
   5:Src/syscalls.c ****  * @brief     Minimal System calls file
   6:Src/syscalls.c ****  *
   7:Src/syscalls.c ****  *            For more information about which c-functions
   8:Src/syscalls.c ****  *            need which of these lowlevel functions
   9:Src/syscalls.c ****  *            please consult the Newlib libc-manual
  10:Src/syscalls.c ****  ******************************************************************************
  11:Src/syscalls.c ****  * @attention
  12:Src/syscalls.c ****  *
  13:Src/syscalls.c ****  * Copyright (c) 2020-2024 STMicroelectronics.
  14:Src/syscalls.c ****  * All rights reserved.
  15:Src/syscalls.c ****  *
  16:Src/syscalls.c ****  * This software is licensed under terms that can be found in the LICENSE file
  17:Src/syscalls.c ****  * in the root directory of this software component.
  18:Src/syscalls.c ****  * If no LICENSE file comes with this software, it is provided AS-IS.
  19:Src/syscalls.c ****  *
  20:Src/syscalls.c ****  ******************************************************************************
  21:Src/syscalls.c ****  */
  22:Src/syscalls.c **** 
  23:Src/syscalls.c **** /* Includes */
  24:Src/syscalls.c **** #include <sys/stat.h>
  25:Src/syscalls.c **** #include <stdlib.h>
  26:Src/syscalls.c **** #include <errno.h>
  27:Src/syscalls.c **** #include <stdio.h>
  28:Src/syscalls.c **** #include <signal.h>
  29:Src/syscalls.c **** #include <time.h>
  30:Src/syscalls.c **** #include <sys/time.h>
  31:Src/syscalls.c **** #include <sys/times.h>
ARM GAS  C:\Users\82057\AppData\Local\Temp\ccO4yw0o.s 			page 2


  32:Src/syscalls.c **** 
  33:Src/syscalls.c **** 
  34:Src/syscalls.c **** /* Variables */
  35:Src/syscalls.c **** extern int __io_putchar(int ch) __attribute__((weak));
  36:Src/syscalls.c **** extern int __io_getchar(void) __attribute__((weak));
  37:Src/syscalls.c **** 
  38:Src/syscalls.c **** 
  39:Src/syscalls.c **** char *__env[1] = { 0 };
  40:Src/syscalls.c **** char **environ = __env;
  41:Src/syscalls.c **** 
  42:Src/syscalls.c **** 
  43:Src/syscalls.c **** /* Functions */
  44:Src/syscalls.c **** void initialise_monitor_handles()
  45:Src/syscalls.c **** {
  28              		.loc 1 45 0
  29              		.cfi_startproc
  30              		@ args = 0, pretend = 0, frame = 0
  31              		@ frame_needed = 0, uses_anonymous_args = 0
  32              		@ link register save eliminated.
  46:Src/syscalls.c **** }
  33              		.loc 1 46 0
  34 0000 7047     		bx	lr
  35              		.cfi_endproc
  36              	.LFE19:
  38              		.section	.text._getpid,"ax",%progbits
  39              		.align	1
  40              		.global	_getpid
  41              		.syntax unified
  42              		.thumb
  43              		.thumb_func
  44              		.fpu fpv4-sp-d16
  46              	_getpid:
  47              	.LFB20:
  47:Src/syscalls.c **** 
  48:Src/syscalls.c **** int _getpid(void)
  49:Src/syscalls.c **** {
  48              		.loc 1 49 0
  49              		.cfi_startproc
  50              		@ args = 0, pretend = 0, frame = 0
  51              		@ frame_needed = 0, uses_anonymous_args = 0
  52              		@ link register save eliminated.
  50:Src/syscalls.c ****   return 1;
  51:Src/syscalls.c **** }
  53              		.loc 1 51 0
  54 0000 0120     		movs	r0, #1
  55 0002 7047     		bx	lr
  56              		.cfi_endproc
  57              	.LFE20:
  59              		.section	.text._kill,"ax",%progbits
  60              		.align	1
  61              		.global	_kill
  62              		.syntax unified
  63              		.thumb
  64              		.thumb_func
  65              		.fpu fpv4-sp-d16
  67              	_kill:
  68              	.LFB21:
ARM GAS  C:\Users\82057\AppData\Local\Temp\ccO4yw0o.s 			page 3


  52:Src/syscalls.c **** 
  53:Src/syscalls.c **** int _kill(int pid, int sig)
  54:Src/syscalls.c **** {
  69              		.loc 1 54 0
  70              		.cfi_startproc
  71              		@ args = 0, pretend = 0, frame = 0
  72              		@ frame_needed = 0, uses_anonymous_args = 0
  73              	.LVL0:
  74 0000 08B5     		push	{r3, lr}
  75              	.LCFI0:
  76              		.cfi_def_cfa_offset 8
  77              		.cfi_offset 3, -8
  78              		.cfi_offset 14, -4
  55:Src/syscalls.c ****   (void)pid;
  56:Src/syscalls.c ****   (void)sig;
  57:Src/syscalls.c ****   errno = EINVAL;
  79              		.loc 1 57 0
  80 0002 FFF7FEFF 		bl	__errno
  81              	.LVL1:
  82 0006 1623     		movs	r3, #22
  83 0008 0360     		str	r3, [r0]
  58:Src/syscalls.c ****   return -1;
  59:Src/syscalls.c **** }
  84              		.loc 1 59 0
  85 000a 4FF0FF30 		mov	r0, #-1
  86 000e 08BD     		pop	{r3, pc}
  87              		.cfi_endproc
  88              	.LFE21:
  90              		.section	.text._exit,"ax",%progbits
  91              		.align	1
  92              		.global	_exit
  93              		.syntax unified
  94              		.thumb
  95              		.thumb_func
  96              		.fpu fpv4-sp-d16
  98              	_exit:
  99              	.LFB22:
  60:Src/syscalls.c **** 
  61:Src/syscalls.c **** void _exit (int status)
  62:Src/syscalls.c **** {
 100              		.loc 1 62 0
 101              		.cfi_startproc
 102              		@ Volatile: function does not return.
 103              		@ args = 0, pretend = 0, frame = 0
 104              		@ frame_needed = 0, uses_anonymous_args = 0
 105              	.LVL2:
 106 0000 08B5     		push	{r3, lr}
 107              	.LCFI1:
 108              		.cfi_def_cfa_offset 8
 109              		.cfi_offset 3, -8
 110              		.cfi_offset 14, -4
  63:Src/syscalls.c ****   _kill(status, -1);
 111              		.loc 1 63 0
 112 0002 4FF0FF31 		mov	r1, #-1
 113 0006 FFF7FEFF 		bl	_kill
 114              	.LVL3:
 115              	.L6:
ARM GAS  C:\Users\82057\AppData\Local\Temp\ccO4yw0o.s 			page 4


 116 000a FEE7     		b	.L6
 117              		.cfi_endproc
 118              	.LFE22:
 120              		.section	.text._read,"ax",%progbits
 121              		.align	1
 122              		.weak	_read
 123              		.syntax unified
 124              		.thumb
 125              		.thumb_func
 126              		.fpu fpv4-sp-d16
 128              	_read:
 129              	.LFB23:
  64:Src/syscalls.c ****   while (1) {}    /* Make sure we hang here */
  65:Src/syscalls.c **** }
  66:Src/syscalls.c **** 
  67:Src/syscalls.c **** __attribute__((weak)) int _read(int file, char *ptr, int len)
  68:Src/syscalls.c **** {
 130              		.loc 1 68 0
 131              		.cfi_startproc
 132              		@ args = 0, pretend = 0, frame = 0
 133              		@ frame_needed = 0, uses_anonymous_args = 0
 134              	.LVL4:
 135 0000 70B5     		push	{r4, r5, r6, lr}
 136              	.LCFI2:
 137              		.cfi_def_cfa_offset 16
 138              		.cfi_offset 4, -16
 139              		.cfi_offset 5, -12
 140              		.cfi_offset 6, -8
 141              		.cfi_offset 14, -4
 142 0002 0D46     		mov	r5, r1
 143 0004 1646     		mov	r6, r2
 144              	.LVL5:
  69:Src/syscalls.c ****   (void)file;
  70:Src/syscalls.c ****   int DataIdx;
  71:Src/syscalls.c **** 
  72:Src/syscalls.c ****   for (DataIdx = 0; DataIdx < len; DataIdx++)
 145              		.loc 1 72 0
 146 0006 0024     		movs	r4, #0
 147 0008 04E0     		b	.L9
 148              	.LVL6:
 149              	.L10:
  73:Src/syscalls.c ****   {
  74:Src/syscalls.c ****     *ptr++ = __io_getchar();
 150              		.loc 1 74 0 discriminator 3
 151 000a FFF7FEFF 		bl	__io_getchar
 152              	.LVL7:
 153 000e 2870     		strb	r0, [r5]
  72:Src/syscalls.c ****   {
 154              		.loc 1 72 0 discriminator 3
 155 0010 0134     		adds	r4, r4, #1
 156              	.LVL8:
 157              		.loc 1 74 0 discriminator 3
 158 0012 0135     		adds	r5, r5, #1
 159              	.LVL9:
 160              	.L9:
  72:Src/syscalls.c ****   {
 161              		.loc 1 72 0 discriminator 1
ARM GAS  C:\Users\82057\AppData\Local\Temp\ccO4yw0o.s 			page 5


 162 0014 B442     		cmp	r4, r6
 163 0016 F8DB     		blt	.L10
  75:Src/syscalls.c ****   }
  76:Src/syscalls.c **** 
  77:Src/syscalls.c ****   return len;
  78:Src/syscalls.c **** }
 164              		.loc 1 78 0
 165 0018 3046     		mov	r0, r6
 166 001a 70BD     		pop	{r4, r5, r6, pc}
 167              		.cfi_endproc
 168              	.LFE23:
 170              		.section	.text._write,"ax",%progbits
 171              		.align	1
 172              		.weak	_write
 173              		.syntax unified
 174              		.thumb
 175              		.thumb_func
 176              		.fpu fpv4-sp-d16
 178              	_write:
 179              	.LFB24:
  79:Src/syscalls.c **** 
  80:Src/syscalls.c **** __attribute__((weak)) int _write(int file, char *ptr, int len)
  81:Src/syscalls.c **** {
 180              		.loc 1 81 0
 181              		.cfi_startproc
 182              		@ args = 0, pretend = 0, frame = 0
 183              		@ frame_needed = 0, uses_anonymous_args = 0
 184              	.LVL10:
 185 0000 70B5     		push	{r4, r5, r6, lr}
 186              	.LCFI3:
 187              		.cfi_def_cfa_offset 16
 188              		.cfi_offset 4, -16
 189              		.cfi_offset 5, -12
 190              		.cfi_offset 6, -8
 191              		.cfi_offset 14, -4
 192 0002 1646     		mov	r6, r2
 193              	.LVL11:
  82:Src/syscalls.c ****   (void)file;
  83:Src/syscalls.c ****   int DataIdx;
  84:Src/syscalls.c **** 
  85:Src/syscalls.c ****   for (DataIdx = 0; DataIdx < len; DataIdx++)
 194              		.loc 1 85 0
 195 0004 0024     		movs	r4, #0
 196 0006 05E0     		b	.L13
 197              	.LVL12:
 198              	.L14:
  86:Src/syscalls.c ****   {
  87:Src/syscalls.c ****     __io_putchar(*ptr++);
 199              		.loc 1 87 0 discriminator 3
 200 0008 4D1C     		adds	r5, r1, #1
 201              	.LVL13:
 202 000a 0878     		ldrb	r0, [r1]	@ zero_extendqisi2
 203 000c FFF7FEFF 		bl	__io_putchar
 204              	.LVL14:
  85:Src/syscalls.c ****   {
 205              		.loc 1 85 0 discriminator 3
 206 0010 0134     		adds	r4, r4, #1
ARM GAS  C:\Users\82057\AppData\Local\Temp\ccO4yw0o.s 			page 6


 207              	.LVL15:
 208              		.loc 1 87 0 discriminator 3
 209 0012 2946     		mov	r1, r5
 210              	.LVL16:
 211              	.L13:
  85:Src/syscalls.c ****   {
 212              		.loc 1 85 0 discriminator 1
 213 0014 B442     		cmp	r4, r6
 214 0016 F7DB     		blt	.L14
  88:Src/syscalls.c ****   }
  89:Src/syscalls.c ****   return len;
  90:Src/syscalls.c **** }
 215              		.loc 1 90 0
 216 0018 3046     		mov	r0, r6
 217 001a 70BD     		pop	{r4, r5, r6, pc}
 218              		.cfi_endproc
 219              	.LFE24:
 221              		.section	.text._close,"ax",%progbits
 222              		.align	1
 223              		.global	_close
 224              		.syntax unified
 225              		.thumb
 226              		.thumb_func
 227              		.fpu fpv4-sp-d16
 229              	_close:
 230              	.LFB25:
  91:Src/syscalls.c **** 
  92:Src/syscalls.c **** int _close(int file)
  93:Src/syscalls.c **** {
 231              		.loc 1 93 0
 232              		.cfi_startproc
 233              		@ args = 0, pretend = 0, frame = 0
 234              		@ frame_needed = 0, uses_anonymous_args = 0
 235              		@ link register save eliminated.
 236              	.LVL17:
  94:Src/syscalls.c ****   (void)file;
  95:Src/syscalls.c ****   return -1;
  96:Src/syscalls.c **** }
 237              		.loc 1 96 0
 238 0000 4FF0FF30 		mov	r0, #-1
 239              	.LVL18:
 240 0004 7047     		bx	lr
 241              		.cfi_endproc
 242              	.LFE25:
 244              		.section	.text._fstat,"ax",%progbits
 245              		.align	1
 246              		.global	_fstat
 247              		.syntax unified
 248              		.thumb
 249              		.thumb_func
 250              		.fpu fpv4-sp-d16
 252              	_fstat:
 253              	.LFB26:
  97:Src/syscalls.c **** 
  98:Src/syscalls.c **** 
  99:Src/syscalls.c **** int _fstat(int file, struct stat *st)
 100:Src/syscalls.c **** {
ARM GAS  C:\Users\82057\AppData\Local\Temp\ccO4yw0o.s 			page 7


 254              		.loc 1 100 0
 255              		.cfi_startproc
 256              		@ args = 0, pretend = 0, frame = 0
 257              		@ frame_needed = 0, uses_anonymous_args = 0
 258              		@ link register save eliminated.
 259              	.LVL19:
 101:Src/syscalls.c ****   (void)file;
 102:Src/syscalls.c ****   st->st_mode = S_IFCHR;
 260              		.loc 1 102 0
 261 0000 4FF40053 		mov	r3, #8192
 262 0004 4B60     		str	r3, [r1, #4]
 103:Src/syscalls.c ****   return 0;
 104:Src/syscalls.c **** }
 263              		.loc 1 104 0
 264 0006 0020     		movs	r0, #0
 265              	.LVL20:
 266 0008 7047     		bx	lr
 267              		.cfi_endproc
 268              	.LFE26:
 270              		.section	.text._isatty,"ax",%progbits
 271              		.align	1
 272              		.global	_isatty
 273              		.syntax unified
 274              		.thumb
 275              		.thumb_func
 276              		.fpu fpv4-sp-d16
 278              	_isatty:
 279              	.LFB27:
 105:Src/syscalls.c **** 
 106:Src/syscalls.c **** int _isatty(int file)
 107:Src/syscalls.c **** {
 280              		.loc 1 107 0
 281              		.cfi_startproc
 282              		@ args = 0, pretend = 0, frame = 0
 283              		@ frame_needed = 0, uses_anonymous_args = 0
 284              		@ link register save eliminated.
 285              	.LVL21:
 108:Src/syscalls.c ****   (void)file;
 109:Src/syscalls.c ****   return 1;
 110:Src/syscalls.c **** }
 286              		.loc 1 110 0
 287 0000 0120     		movs	r0, #1
 288              	.LVL22:
 289 0002 7047     		bx	lr
 290              		.cfi_endproc
 291              	.LFE27:
 293              		.section	.text._lseek,"ax",%progbits
 294              		.align	1
 295              		.global	_lseek
 296              		.syntax unified
 297              		.thumb
 298              		.thumb_func
 299              		.fpu fpv4-sp-d16
 301              	_lseek:
 302              	.LFB28:
 111:Src/syscalls.c **** 
 112:Src/syscalls.c **** int _lseek(int file, int ptr, int dir)
ARM GAS  C:\Users\82057\AppData\Local\Temp\ccO4yw0o.s 			page 8


 113:Src/syscalls.c **** {
 303              		.loc 1 113 0
 304              		.cfi_startproc
 305              		@ args = 0, pretend = 0, frame = 0
 306              		@ frame_needed = 0, uses_anonymous_args = 0
 307              		@ link register save eliminated.
 308              	.LVL23:
 114:Src/syscalls.c ****   (void)file;
 115:Src/syscalls.c ****   (void)ptr;
 116:Src/syscalls.c ****   (void)dir;
 117:Src/syscalls.c ****   return 0;
 118:Src/syscalls.c **** }
 309              		.loc 1 118 0
 310 0000 0020     		movs	r0, #0
 311              	.LVL24:
 312 0002 7047     		bx	lr
 313              		.cfi_endproc
 314              	.LFE28:
 316              		.section	.text._open,"ax",%progbits
 317              		.align	1
 318              		.global	_open
 319              		.syntax unified
 320              		.thumb
 321              		.thumb_func
 322              		.fpu fpv4-sp-d16
 324              	_open:
 325              	.LFB29:
 119:Src/syscalls.c **** 
 120:Src/syscalls.c **** int _open(char *path, int flags, ...)
 121:Src/syscalls.c **** {
 326              		.loc 1 121 0
 327              		.cfi_startproc
 328              		@ args = 4, pretend = 12, frame = 0
 329              		@ frame_needed = 0, uses_anonymous_args = 1
 330              		@ link register save eliminated.
 331              	.LVL25:
 332 0000 0EB4     		push	{r1, r2, r3}
 333              	.LCFI4:
 334              		.cfi_def_cfa_offset 12
 335              		.cfi_offset 1, -12
 336              		.cfi_offset 2, -8
 337              		.cfi_offset 3, -4
 122:Src/syscalls.c ****   (void)path;
 123:Src/syscalls.c ****   (void)flags;
 124:Src/syscalls.c ****   /* Pretend like we always fail */
 125:Src/syscalls.c ****   return -1;
 126:Src/syscalls.c **** }
 338              		.loc 1 126 0
 339 0002 4FF0FF30 		mov	r0, #-1
 340              	.LVL26:
 341 0006 03B0     		add	sp, sp, #12
 342              	.LCFI5:
 343              		.cfi_restore 3
 344              		.cfi_restore 2
 345              		.cfi_restore 1
 346              		.cfi_def_cfa_offset 0
 347 0008 7047     		bx	lr
ARM GAS  C:\Users\82057\AppData\Local\Temp\ccO4yw0o.s 			page 9


 348              		.cfi_endproc
 349              	.LFE29:
 351              		.section	.text._wait,"ax",%progbits
 352              		.align	1
 353              		.global	_wait
 354              		.syntax unified
 355              		.thumb
 356              		.thumb_func
 357              		.fpu fpv4-sp-d16
 359              	_wait:
 360              	.LFB30:
 127:Src/syscalls.c **** 
 128:Src/syscalls.c **** int _wait(int *status)
 129:Src/syscalls.c **** {
 361              		.loc 1 129 0
 362              		.cfi_startproc
 363              		@ args = 0, pretend = 0, frame = 0
 364              		@ frame_needed = 0, uses_anonymous_args = 0
 365              	.LVL27:
 366 0000 08B5     		push	{r3, lr}
 367              	.LCFI6:
 368              		.cfi_def_cfa_offset 8
 369              		.cfi_offset 3, -8
 370              		.cfi_offset 14, -4
 130:Src/syscalls.c ****   (void)status;
 131:Src/syscalls.c ****   errno = ECHILD;
 371              		.loc 1 131 0
 372 0002 FFF7FEFF 		bl	__errno
 373              	.LVL28:
 374 0006 0A23     		movs	r3, #10
 375 0008 0360     		str	r3, [r0]
 132:Src/syscalls.c ****   return -1;
 133:Src/syscalls.c **** }
 376              		.loc 1 133 0
 377 000a 4FF0FF30 		mov	r0, #-1
 378 000e 08BD     		pop	{r3, pc}
 379              		.cfi_endproc
 380              	.LFE30:
 382              		.section	.text._unlink,"ax",%progbits
 383              		.align	1
 384              		.global	_unlink
 385              		.syntax unified
 386              		.thumb
 387              		.thumb_func
 388              		.fpu fpv4-sp-d16
 390              	_unlink:
 391              	.LFB31:
 134:Src/syscalls.c **** 
 135:Src/syscalls.c **** int _unlink(char *name)
 136:Src/syscalls.c **** {
 392              		.loc 1 136 0
 393              		.cfi_startproc
 394              		@ args = 0, pretend = 0, frame = 0
 395              		@ frame_needed = 0, uses_anonymous_args = 0
 396              	.LVL29:
 397 0000 08B5     		push	{r3, lr}
 398              	.LCFI7:
ARM GAS  C:\Users\82057\AppData\Local\Temp\ccO4yw0o.s 			page 10


 399              		.cfi_def_cfa_offset 8
 400              		.cfi_offset 3, -8
 401              		.cfi_offset 14, -4
 137:Src/syscalls.c ****   (void)name;
 138:Src/syscalls.c ****   errno = ENOENT;
 402              		.loc 1 138 0
 403 0002 FFF7FEFF 		bl	__errno
 404              	.LVL30:
 405 0006 0223     		movs	r3, #2
 406 0008 0360     		str	r3, [r0]
 139:Src/syscalls.c ****   return -1;
 140:Src/syscalls.c **** }
 407              		.loc 1 140 0
 408 000a 4FF0FF30 		mov	r0, #-1
 409 000e 08BD     		pop	{r3, pc}
 410              		.cfi_endproc
 411              	.LFE31:
 413              		.section	.text._times,"ax",%progbits
 414              		.align	1
 415              		.global	_times
 416              		.syntax unified
 417              		.thumb
 418              		.thumb_func
 419              		.fpu fpv4-sp-d16
 421              	_times:
 422              	.LFB32:
 141:Src/syscalls.c **** 
 142:Src/syscalls.c **** int _times(struct tms *buf)
 143:Src/syscalls.c **** {
 423              		.loc 1 143 0
 424              		.cfi_startproc
 425              		@ args = 0, pretend = 0, frame = 0
 426              		@ frame_needed = 0, uses_anonymous_args = 0
 427              		@ link register save eliminated.
 428              	.LVL31:
 144:Src/syscalls.c ****   (void)buf;
 145:Src/syscalls.c ****   return -1;
 146:Src/syscalls.c **** }
 429              		.loc 1 146 0
 430 0000 4FF0FF30 		mov	r0, #-1
 431              	.LVL32:
 432 0004 7047     		bx	lr
 433              		.cfi_endproc
 434              	.LFE32:
 436              		.section	.text._stat,"ax",%progbits
 437              		.align	1
 438              		.global	_stat
 439              		.syntax unified
 440              		.thumb
 441              		.thumb_func
 442              		.fpu fpv4-sp-d16
 444              	_stat:
 445              	.LFB33:
 147:Src/syscalls.c **** 
 148:Src/syscalls.c **** int _stat(char *file, struct stat *st)
 149:Src/syscalls.c **** {
 446              		.loc 1 149 0
ARM GAS  C:\Users\82057\AppData\Local\Temp\ccO4yw0o.s 			page 11


 447              		.cfi_startproc
 448              		@ args = 0, pretend = 0, frame = 0
 449              		@ frame_needed = 0, uses_anonymous_args = 0
 450              		@ link register save eliminated.
 451              	.LVL33:
 150:Src/syscalls.c ****   (void)file;
 151:Src/syscalls.c ****   st->st_mode = S_IFCHR;
 452              		.loc 1 151 0
 453 0000 4FF40053 		mov	r3, #8192
 454 0004 4B60     		str	r3, [r1, #4]
 152:Src/syscalls.c ****   return 0;
 153:Src/syscalls.c **** }
 455              		.loc 1 153 0
 456 0006 0020     		movs	r0, #0
 457              	.LVL34:
 458 0008 7047     		bx	lr
 459              		.cfi_endproc
 460              	.LFE33:
 462              		.section	.text._link,"ax",%progbits
 463              		.align	1
 464              		.global	_link
 465              		.syntax unified
 466              		.thumb
 467              		.thumb_func
 468              		.fpu fpv4-sp-d16
 470              	_link:
 471              	.LFB34:
 154:Src/syscalls.c **** 
 155:Src/syscalls.c **** int _link(char *old, char *new)
 156:Src/syscalls.c **** {
 472              		.loc 1 156 0
 473              		.cfi_startproc
 474              		@ args = 0, pretend = 0, frame = 0
 475              		@ frame_needed = 0, uses_anonymous_args = 0
 476              	.LVL35:
 477 0000 08B5     		push	{r3, lr}
 478              	.LCFI8:
 479              		.cfi_def_cfa_offset 8
 480              		.cfi_offset 3, -8
 481              		.cfi_offset 14, -4
 157:Src/syscalls.c ****   (void)old;
 158:Src/syscalls.c ****   (void)new;
 159:Src/syscalls.c ****   errno = EMLINK;
 482              		.loc 1 159 0
 483 0002 FFF7FEFF 		bl	__errno
 484              	.LVL36:
 485 0006 1F23     		movs	r3, #31
 486 0008 0360     		str	r3, [r0]
 160:Src/syscalls.c ****   return -1;
 161:Src/syscalls.c **** }
 487              		.loc 1 161 0
 488 000a 4FF0FF30 		mov	r0, #-1
 489 000e 08BD     		pop	{r3, pc}
 490              		.cfi_endproc
 491              	.LFE34:
 493              		.section	.text._fork,"ax",%progbits
 494              		.align	1
ARM GAS  C:\Users\82057\AppData\Local\Temp\ccO4yw0o.s 			page 12


 495              		.global	_fork
 496              		.syntax unified
 497              		.thumb
 498              		.thumb_func
 499              		.fpu fpv4-sp-d16
 501              	_fork:
 502              	.LFB35:
 162:Src/syscalls.c **** 
 163:Src/syscalls.c **** int _fork(void)
 164:Src/syscalls.c **** {
 503              		.loc 1 164 0
 504              		.cfi_startproc
 505              		@ args = 0, pretend = 0, frame = 0
 506              		@ frame_needed = 0, uses_anonymous_args = 0
 507 0000 08B5     		push	{r3, lr}
 508              	.LCFI9:
 509              		.cfi_def_cfa_offset 8
 510              		.cfi_offset 3, -8
 511              		.cfi_offset 14, -4
 165:Src/syscalls.c ****   errno = EAGAIN;
 512              		.loc 1 165 0
 513 0002 FFF7FEFF 		bl	__errno
 514              	.LVL37:
 515 0006 0B23     		movs	r3, #11
 516 0008 0360     		str	r3, [r0]
 166:Src/syscalls.c ****   return -1;
 167:Src/syscalls.c **** }
 517              		.loc 1 167 0
 518 000a 4FF0FF30 		mov	r0, #-1
 519 000e 08BD     		pop	{r3, pc}
 520              		.cfi_endproc
 521              	.LFE35:
 523              		.section	.text._execve,"ax",%progbits
 524              		.align	1
 525              		.global	_execve
 526              		.syntax unified
 527              		.thumb
 528              		.thumb_func
 529              		.fpu fpv4-sp-d16
 531              	_execve:
 532              	.LFB36:
 168:Src/syscalls.c **** 
 169:Src/syscalls.c **** int _execve(char *name, char **argv, char **env)
 170:Src/syscalls.c **** {
 533              		.loc 1 170 0
 534              		.cfi_startproc
 535              		@ args = 0, pretend = 0, frame = 0
 536              		@ frame_needed = 0, uses_anonymous_args = 0
 537              	.LVL38:
 538 0000 08B5     		push	{r3, lr}
 539              	.LCFI10:
 540              		.cfi_def_cfa_offset 8
 541              		.cfi_offset 3, -8
 542              		.cfi_offset 14, -4
 171:Src/syscalls.c ****   (void)name;
 172:Src/syscalls.c ****   (void)argv;
 173:Src/syscalls.c ****   (void)env;
ARM GAS  C:\Users\82057\AppData\Local\Temp\ccO4yw0o.s 			page 13


 174:Src/syscalls.c ****   errno = ENOMEM;
 543              		.loc 1 174 0
 544 0002 FFF7FEFF 		bl	__errno
 545              	.LVL39:
 546 0006 0C23     		movs	r3, #12
 547 0008 0360     		str	r3, [r0]
 175:Src/syscalls.c ****   return -1;
 176:Src/syscalls.c **** }
 548              		.loc 1 176 0
 549 000a 4FF0FF30 		mov	r0, #-1
 550 000e 08BD     		pop	{r3, pc}
 551              		.cfi_endproc
 552              	.LFE36:
 554              		.global	environ
 555              		.global	__env
 556              		.section	.bss.__env,"aw",%nobits
 557              		.align	2
 560              	__env:
 561 0000 00000000 		.space	4
 562              		.section	.data.environ,"aw",%progbits
 563              		.align	2
 566              	environ:
 567 0000 00000000 		.word	__env
 568              		.weak	__io_putchar
 569              		.weak	__io_getchar
 570              		.text
 571              	.Letext0:
 572              		.file 2 "c:\\program files (x86)\\gnu tools arm embedded\\7 2018-q2-update\\arm-none-eabi\\include
 573              		.file 3 "c:\\program files (x86)\\gnu tools arm embedded\\7 2018-q2-update\\arm-none-eabi\\include
 574              		.file 4 "c:\\program files (x86)\\gnu tools arm embedded\\7 2018-q2-update\\arm-none-eabi\\include
 575              		.file 5 "c:\\program files (x86)\\gnu tools arm embedded\\7 2018-q2-update\\lib\\gcc\\arm-none-eab
 576              		.file 6 "c:\\program files (x86)\\gnu tools arm embedded\\7 2018-q2-update\\arm-none-eabi\\include
 577              		.file 7 "c:\\program files (x86)\\gnu tools arm embedded\\7 2018-q2-update\\arm-none-eabi\\include
 578              		.file 8 "c:\\program files (x86)\\gnu tools arm embedded\\7 2018-q2-update\\arm-none-eabi\\include
 579              		.file 9 "c:\\program files (x86)\\gnu tools arm embedded\\7 2018-q2-update\\arm-none-eabi\\include
 580              		.file 10 "c:\\program files (x86)\\gnu tools arm embedded\\7 2018-q2-update\\arm-none-eabi\\includ
 581              		.file 11 "c:\\program files (x86)\\gnu tools arm embedded\\7 2018-q2-update\\arm-none-eabi\\includ
 582              		.file 12 "c:\\program files (x86)\\gnu tools arm embedded\\7 2018-q2-update\\arm-none-eabi\\includ
 583              		.file 13 "c:\\program files (x86)\\gnu tools arm embedded\\7 2018-q2-update\\arm-none-eabi\\includ
ARM GAS  C:\Users\82057\AppData\Local\Temp\ccO4yw0o.s 			page 14

