ARM GAS  C:\Users\82057\AppData\Local\Temp\ccdxrmdp.s 			page 1


   1              		.cpu cortex-m4
   2              		.eabi_attribute 27, 1
   3              		.eabi_attribute 28, 1
   4              		.eabi_attribute 20, 1
   5              		.eabi_attribute 21, 1
   6              		.eabi_attribute 23, 3
   7              		.eabi_attribute 24, 1
   8              		.eabi_attribute 25, 1
   9              		.eabi_attribute 26, 1
  10              		.eabi_attribute 30, 1
  11              		.eabi_attribute 34, 1
  12              		.eabi_attribute 18, 4
  13              		.file	"usbd_conf.c"
  14              		.text
  15              	.Ltext0:
  16              		.cfi_sections	.debug_frame
  17              		.section	.text.HAL_PCD_MspInit,"ax",%progbits
  18              		.align	1
  19              		.global	HAL_PCD_MspInit
  20              		.syntax unified
  21              		.thumb
  22              		.thumb_func
  23              		.fpu fpv4-sp-d16
  25              	HAL_PCD_MspInit:
  26              	.LFB138:
  27              		.file 1 "Src/usbd_conf.c"
   1:Src/usbd_conf.c **** /* USER CODE BEGIN Header */
   2:Src/usbd_conf.c **** /**
   3:Src/usbd_conf.c ****   ******************************************************************************
   4:Src/usbd_conf.c ****   * @file           : usbd_conf.c
   5:Src/usbd_conf.c ****   * @version        : v1.0_Cube
   6:Src/usbd_conf.c ****   * @brief          : This file implements the board support package for the USB device library
   7:Src/usbd_conf.c ****   ******************************************************************************
   8:Src/usbd_conf.c ****   * @attention
   9:Src/usbd_conf.c ****   *
  10:Src/usbd_conf.c ****   * Copyright (c) 2024 STMicroelectronics.
  11:Src/usbd_conf.c ****   * All rights reserved.
  12:Src/usbd_conf.c ****   *
  13:Src/usbd_conf.c ****   * This software is licensed under terms that can be found in the LICENSE file
  14:Src/usbd_conf.c ****   * in the root directory of this software component.
  15:Src/usbd_conf.c ****   * If no LICENSE file comes with this software, it is provided AS-IS.
  16:Src/usbd_conf.c ****   *
  17:Src/usbd_conf.c ****   ******************************************************************************
  18:Src/usbd_conf.c ****   */
  19:Src/usbd_conf.c **** /* USER CODE END Header */
  20:Src/usbd_conf.c **** 
  21:Src/usbd_conf.c **** /* Includes ------------------------------------------------------------------*/
  22:Src/usbd_conf.c **** #include "stm32f4xx.h"
  23:Src/usbd_conf.c **** #include "stm32f4xx_hal.h"
  24:Src/usbd_conf.c **** #include "usbd_def.h"
  25:Src/usbd_conf.c **** #include "usbd_core.h"
  26:Src/usbd_conf.c **** 
  27:Src/usbd_conf.c **** #include "usbd_cdc.h"
  28:Src/usbd_conf.c **** 
  29:Src/usbd_conf.c **** /* USER CODE BEGIN Includes */
  30:Src/usbd_conf.c **** 
  31:Src/usbd_conf.c **** /* USER CODE END Includes */
ARM GAS  C:\Users\82057\AppData\Local\Temp\ccdxrmdp.s 			page 2


  32:Src/usbd_conf.c **** 
  33:Src/usbd_conf.c **** /* Private typedef -----------------------------------------------------------*/
  34:Src/usbd_conf.c **** /* Private define ------------------------------------------------------------*/
  35:Src/usbd_conf.c **** /* Private macro -------------------------------------------------------------*/
  36:Src/usbd_conf.c **** 
  37:Src/usbd_conf.c **** /* USER CODE BEGIN PV */
  38:Src/usbd_conf.c **** /* Private variables ---------------------------------------------------------*/
  39:Src/usbd_conf.c **** 
  40:Src/usbd_conf.c **** /* USER CODE END PV */
  41:Src/usbd_conf.c **** 
  42:Src/usbd_conf.c **** PCD_HandleTypeDef hpcd_USB_OTG_FS;
  43:Src/usbd_conf.c **** void Error_Handler(void);
  44:Src/usbd_conf.c **** 
  45:Src/usbd_conf.c **** /* External functions --------------------------------------------------------*/
  46:Src/usbd_conf.c **** void SystemClock_Config(void);
  47:Src/usbd_conf.c **** 
  48:Src/usbd_conf.c **** /* USER CODE BEGIN 0 */
  49:Src/usbd_conf.c **** 
  50:Src/usbd_conf.c **** /* USER CODE END 0 */
  51:Src/usbd_conf.c **** 
  52:Src/usbd_conf.c **** /* USER CODE BEGIN PFP */
  53:Src/usbd_conf.c **** /* Private function prototypes -----------------------------------------------*/
  54:Src/usbd_conf.c **** USBD_StatusTypeDef USBD_Get_USB_Status(HAL_StatusTypeDef hal_status);
  55:Src/usbd_conf.c **** 
  56:Src/usbd_conf.c **** /* USER CODE END PFP */
  57:Src/usbd_conf.c **** 
  58:Src/usbd_conf.c **** /* Private functions ---------------------------------------------------------*/
  59:Src/usbd_conf.c **** 
  60:Src/usbd_conf.c **** /* USER CODE BEGIN 1 */
  61:Src/usbd_conf.c **** 
  62:Src/usbd_conf.c **** /* USER CODE END 1 */
  63:Src/usbd_conf.c **** 
  64:Src/usbd_conf.c **** /*******************************************************************************
  65:Src/usbd_conf.c ****                        LL Driver Callbacks (PCD -> USB Device Library)
  66:Src/usbd_conf.c **** *******************************************************************************/
  67:Src/usbd_conf.c **** /* MSP Init */
  68:Src/usbd_conf.c **** 
  69:Src/usbd_conf.c **** void HAL_PCD_MspInit(PCD_HandleTypeDef* pcdHandle)
  70:Src/usbd_conf.c **** {
  28              		.loc 1 70 0
  29              		.cfi_startproc
  30              		@ args = 0, pretend = 0, frame = 32
  31              		@ frame_needed = 0, uses_anonymous_args = 0
  32              	.LVL0:
  33 0000 30B5     		push	{r4, r5, lr}
  34              	.LCFI0:
  35              		.cfi_def_cfa_offset 12
  36              		.cfi_offset 4, -12
  37              		.cfi_offset 5, -8
  38              		.cfi_offset 14, -4
  39 0002 89B0     		sub	sp, sp, #36
  40              	.LCFI1:
  41              		.cfi_def_cfa_offset 48
  71:Src/usbd_conf.c ****   GPIO_InitTypeDef GPIO_InitStruct = {0};
  42              		.loc 1 71 0
  43 0004 0023     		movs	r3, #0
  44 0006 0393     		str	r3, [sp, #12]
ARM GAS  C:\Users\82057\AppData\Local\Temp\ccdxrmdp.s 			page 3


  45 0008 0493     		str	r3, [sp, #16]
  46 000a 0593     		str	r3, [sp, #20]
  47 000c 0693     		str	r3, [sp, #24]
  48 000e 0793     		str	r3, [sp, #28]
  72:Src/usbd_conf.c ****   if(pcdHandle->Instance==USB_OTG_FS)
  49              		.loc 1 72 0
  50 0010 0368     		ldr	r3, [r0]
  51 0012 B3F1A04F 		cmp	r3, #1342177280
  52 0016 01D0     		beq	.L4
  53              	.LVL1:
  54              	.L1:
  73:Src/usbd_conf.c ****   {
  74:Src/usbd_conf.c ****   /* USER CODE BEGIN USB_OTG_FS_MspInit 0 */
  75:Src/usbd_conf.c **** 
  76:Src/usbd_conf.c ****   /* USER CODE END USB_OTG_FS_MspInit 0 */
  77:Src/usbd_conf.c **** 
  78:Src/usbd_conf.c ****     __HAL_RCC_GPIOA_CLK_ENABLE();
  79:Src/usbd_conf.c ****     /**USB_OTG_FS GPIO Configuration
  80:Src/usbd_conf.c ****     PA11     ------> USB_OTG_FS_DM
  81:Src/usbd_conf.c ****     PA12     ------> USB_OTG_FS_DP
  82:Src/usbd_conf.c ****     */
  83:Src/usbd_conf.c ****     GPIO_InitStruct.Pin = GPIO_PIN_11|GPIO_PIN_12;
  84:Src/usbd_conf.c ****     GPIO_InitStruct.Mode = GPIO_MODE_AF_PP;
  85:Src/usbd_conf.c ****     GPIO_InitStruct.Pull = GPIO_NOPULL;
  86:Src/usbd_conf.c ****     GPIO_InitStruct.Speed = GPIO_SPEED_FREQ_VERY_HIGH;
  87:Src/usbd_conf.c ****     GPIO_InitStruct.Alternate = GPIO_AF10_OTG_FS;
  88:Src/usbd_conf.c ****     HAL_GPIO_Init(GPIOA, &GPIO_InitStruct);
  89:Src/usbd_conf.c **** 
  90:Src/usbd_conf.c ****     /* Peripheral clock enable */
  91:Src/usbd_conf.c ****     __HAL_RCC_USB_OTG_FS_CLK_ENABLE();
  92:Src/usbd_conf.c **** 
  93:Src/usbd_conf.c ****     /* Peripheral interrupt init */
  94:Src/usbd_conf.c ****     HAL_NVIC_SetPriority(OTG_FS_IRQn, 5, 0);
  95:Src/usbd_conf.c ****     HAL_NVIC_EnableIRQ(OTG_FS_IRQn);
  96:Src/usbd_conf.c ****   /* USER CODE BEGIN USB_OTG_FS_MspInit 1 */
  97:Src/usbd_conf.c **** 
  98:Src/usbd_conf.c ****   /* USER CODE END USB_OTG_FS_MspInit 1 */
  99:Src/usbd_conf.c ****   }
 100:Src/usbd_conf.c **** }
  55              		.loc 1 100 0
  56 0018 09B0     		add	sp, sp, #36
  57              	.LCFI2:
  58              		.cfi_remember_state
  59              		.cfi_def_cfa_offset 12
  60              		@ sp needed
  61 001a 30BD     		pop	{r4, r5, pc}
  62              	.LVL2:
  63              	.L4:
  64              	.LCFI3:
  65              		.cfi_restore_state
  66              	.LBB2:
  78:Src/usbd_conf.c ****     /**USB_OTG_FS GPIO Configuration
  67              		.loc 1 78 0
  68 001c 0025     		movs	r5, #0
  69 001e 0195     		str	r5, [sp, #4]
  70 0020 164C     		ldr	r4, .L5
  71 0022 236B     		ldr	r3, [r4, #48]
ARM GAS  C:\Users\82057\AppData\Local\Temp\ccdxrmdp.s 			page 4


  72 0024 43F00103 		orr	r3, r3, #1
  73 0028 2363     		str	r3, [r4, #48]
  74 002a 236B     		ldr	r3, [r4, #48]
  75 002c 03F00103 		and	r3, r3, #1
  76 0030 0193     		str	r3, [sp, #4]
  77 0032 019B     		ldr	r3, [sp, #4]
  78              	.LBE2:
  83:Src/usbd_conf.c ****     GPIO_InitStruct.Mode = GPIO_MODE_AF_PP;
  79              		.loc 1 83 0
  80 0034 4FF4C053 		mov	r3, #6144
  81 0038 0393     		str	r3, [sp, #12]
  84:Src/usbd_conf.c ****     GPIO_InitStruct.Pull = GPIO_NOPULL;
  82              		.loc 1 84 0
  83 003a 0223     		movs	r3, #2
  84 003c 0493     		str	r3, [sp, #16]
  86:Src/usbd_conf.c ****     GPIO_InitStruct.Alternate = GPIO_AF10_OTG_FS;
  85              		.loc 1 86 0
  86 003e 0323     		movs	r3, #3
  87 0040 0693     		str	r3, [sp, #24]
  87:Src/usbd_conf.c ****     HAL_GPIO_Init(GPIOA, &GPIO_InitStruct);
  88              		.loc 1 87 0
  89 0042 0A23     		movs	r3, #10
  90 0044 0793     		str	r3, [sp, #28]
  88:Src/usbd_conf.c **** 
  91              		.loc 1 88 0
  92 0046 03A9     		add	r1, sp, #12
  93 0048 0D48     		ldr	r0, .L5+4
  94              	.LVL3:
  95 004a FFF7FEFF 		bl	HAL_GPIO_Init
  96              	.LVL4:
  91:Src/usbd_conf.c **** 
  97              		.loc 1 91 0
  98 004e 636B     		ldr	r3, [r4, #52]
  99 0050 43F08003 		orr	r3, r3, #128
 100 0054 6363     		str	r3, [r4, #52]
 101              	.LBB3:
 102 0056 0295     		str	r5, [sp, #8]
 103 0058 636C     		ldr	r3, [r4, #68]
 104 005a 43F48043 		orr	r3, r3, #16384
 105 005e 6364     		str	r3, [r4, #68]
 106 0060 636C     		ldr	r3, [r4, #68]
 107 0062 03F48043 		and	r3, r3, #16384
 108 0066 0293     		str	r3, [sp, #8]
 109 0068 029B     		ldr	r3, [sp, #8]
 110              	.LBE3:
  94:Src/usbd_conf.c ****     HAL_NVIC_EnableIRQ(OTG_FS_IRQn);
 111              		.loc 1 94 0
 112 006a 2A46     		mov	r2, r5
 113 006c 0521     		movs	r1, #5
 114 006e 4320     		movs	r0, #67
 115 0070 FFF7FEFF 		bl	HAL_NVIC_SetPriority
 116              	.LVL5:
  95:Src/usbd_conf.c ****   /* USER CODE BEGIN USB_OTG_FS_MspInit 1 */
 117              		.loc 1 95 0
 118 0074 4320     		movs	r0, #67
 119 0076 FFF7FEFF 		bl	HAL_NVIC_EnableIRQ
 120              	.LVL6:
ARM GAS  C:\Users\82057\AppData\Local\Temp\ccdxrmdp.s 			page 5


 121              		.loc 1 100 0
 122 007a CDE7     		b	.L1
 123              	.L6:
 124              		.align	2
 125              	.L5:
 126 007c 00380240 		.word	1073887232
 127 0080 00000240 		.word	1073872896
 128              		.cfi_endproc
 129              	.LFE138:
 131              		.section	.text.HAL_PCD_MspDeInit,"ax",%progbits
 132              		.align	1
 133              		.global	HAL_PCD_MspDeInit
 134              		.syntax unified
 135              		.thumb
 136              		.thumb_func
 137              		.fpu fpv4-sp-d16
 139              	HAL_PCD_MspDeInit:
 140              	.LFB139:
 101:Src/usbd_conf.c **** 
 102:Src/usbd_conf.c **** void HAL_PCD_MspDeInit(PCD_HandleTypeDef* pcdHandle)
 103:Src/usbd_conf.c **** {
 141              		.loc 1 103 0
 142              		.cfi_startproc
 143              		@ args = 0, pretend = 0, frame = 0
 144              		@ frame_needed = 0, uses_anonymous_args = 0
 145              	.LVL7:
 146 0000 08B5     		push	{r3, lr}
 147              	.LCFI4:
 148              		.cfi_def_cfa_offset 8
 149              		.cfi_offset 3, -8
 150              		.cfi_offset 14, -4
 104:Src/usbd_conf.c ****   if(pcdHandle->Instance==USB_OTG_FS)
 151              		.loc 1 104 0
 152 0002 0368     		ldr	r3, [r0]
 153 0004 B3F1A04F 		cmp	r3, #1342177280
 154 0008 00D0     		beq	.L10
 155              	.LVL8:
 156              	.L7:
 105:Src/usbd_conf.c ****   {
 106:Src/usbd_conf.c ****   /* USER CODE BEGIN USB_OTG_FS_MspDeInit 0 */
 107:Src/usbd_conf.c **** 
 108:Src/usbd_conf.c ****   /* USER CODE END USB_OTG_FS_MspDeInit 0 */
 109:Src/usbd_conf.c ****     /* Peripheral clock disable */
 110:Src/usbd_conf.c ****     __HAL_RCC_USB_OTG_FS_CLK_DISABLE();
 111:Src/usbd_conf.c **** 
 112:Src/usbd_conf.c ****     /**USB_OTG_FS GPIO Configuration
 113:Src/usbd_conf.c ****     PA11     ------> USB_OTG_FS_DM
 114:Src/usbd_conf.c ****     PA12     ------> USB_OTG_FS_DP
 115:Src/usbd_conf.c ****     */
 116:Src/usbd_conf.c ****     HAL_GPIO_DeInit(GPIOA, GPIO_PIN_11|GPIO_PIN_12);
 117:Src/usbd_conf.c **** 
 118:Src/usbd_conf.c ****     /* Peripheral interrupt Deinit*/
 119:Src/usbd_conf.c ****     HAL_NVIC_DisableIRQ(OTG_FS_IRQn);
 120:Src/usbd_conf.c **** 
 121:Src/usbd_conf.c ****   /* USER CODE BEGIN USB_OTG_FS_MspDeInit 1 */
 122:Src/usbd_conf.c **** 
 123:Src/usbd_conf.c ****   /* USER CODE END USB_OTG_FS_MspDeInit 1 */
ARM GAS  C:\Users\82057\AppData\Local\Temp\ccdxrmdp.s 			page 6


 124:Src/usbd_conf.c ****   }
 125:Src/usbd_conf.c **** }
 157              		.loc 1 125 0
 158 000a 08BD     		pop	{r3, pc}
 159              	.LVL9:
 160              	.L10:
 110:Src/usbd_conf.c **** 
 161              		.loc 1 110 0
 162 000c 064A     		ldr	r2, .L11
 163 000e 536B     		ldr	r3, [r2, #52]
 164 0010 23F08003 		bic	r3, r3, #128
 165 0014 5363     		str	r3, [r2, #52]
 116:Src/usbd_conf.c **** 
 166              		.loc 1 116 0
 167 0016 4FF4C051 		mov	r1, #6144
 168 001a 0448     		ldr	r0, .L11+4
 169              	.LVL10:
 170 001c FFF7FEFF 		bl	HAL_GPIO_DeInit
 171              	.LVL11:
 119:Src/usbd_conf.c **** 
 172              		.loc 1 119 0
 173 0020 4320     		movs	r0, #67
 174 0022 FFF7FEFF 		bl	HAL_NVIC_DisableIRQ
 175              	.LVL12:
 176              		.loc 1 125 0
 177 0026 F0E7     		b	.L7
 178              	.L12:
 179              		.align	2
 180              	.L11:
 181 0028 00380240 		.word	1073887232
 182 002c 00000240 		.word	1073872896
 183              		.cfi_endproc
 184              	.LFE139:
 186              		.section	.text.HAL_PCD_SetupStageCallback,"ax",%progbits
 187              		.align	1
 188              		.global	HAL_PCD_SetupStageCallback
 189              		.syntax unified
 190              		.thumb
 191              		.thumb_func
 192              		.fpu fpv4-sp-d16
 194              	HAL_PCD_SetupStageCallback:
 195              	.LFB140:
 126:Src/usbd_conf.c **** 
 127:Src/usbd_conf.c **** /**
 128:Src/usbd_conf.c ****   * @brief  Setup stage callback
 129:Src/usbd_conf.c ****   * @param  hpcd: PCD handle
 130:Src/usbd_conf.c ****   * @retval None
 131:Src/usbd_conf.c ****   */
 132:Src/usbd_conf.c **** #if (USE_HAL_PCD_REGISTER_CALLBACKS == 1U)
 133:Src/usbd_conf.c **** static void PCD_SetupStageCallback(PCD_HandleTypeDef *hpcd)
 134:Src/usbd_conf.c **** #else
 135:Src/usbd_conf.c **** void HAL_PCD_SetupStageCallback(PCD_HandleTypeDef *hpcd)
 136:Src/usbd_conf.c **** #endif /* USE_HAL_PCD_REGISTER_CALLBACKS */
 137:Src/usbd_conf.c **** {
 196              		.loc 1 137 0
 197              		.cfi_startproc
 198              		@ args = 0, pretend = 0, frame = 0
ARM GAS  C:\Users\82057\AppData\Local\Temp\ccdxrmdp.s 			page 7


 199              		@ frame_needed = 0, uses_anonymous_args = 0
 200              	.LVL13:
 201 0000 08B5     		push	{r3, lr}
 202              	.LCFI5:
 203              		.cfi_def_cfa_offset 8
 204              		.cfi_offset 3, -8
 205              		.cfi_offset 14, -4
 138:Src/usbd_conf.c ****   USBD_LL_SetupStage((USBD_HandleTypeDef*)hpcd->pData, (uint8_t *)hpcd->Setup);
 206              		.loc 1 138 0
 207 0002 00F29C41 		addw	r1, r0, #1180
 208 0006 D0F8E004 		ldr	r0, [r0, #1248]
 209              	.LVL14:
 210 000a FFF7FEFF 		bl	USBD_LL_SetupStage
 211              	.LVL15:
 139:Src/usbd_conf.c **** }
 212              		.loc 1 139 0
 213 000e 08BD     		pop	{r3, pc}
 214              		.cfi_endproc
 215              	.LFE140:
 217              		.section	.text.HAL_PCD_DataOutStageCallback,"ax",%progbits
 218              		.align	1
 219              		.global	HAL_PCD_DataOutStageCallback
 220              		.syntax unified
 221              		.thumb
 222              		.thumb_func
 223              		.fpu fpv4-sp-d16
 225              	HAL_PCD_DataOutStageCallback:
 226              	.LFB141:
 140:Src/usbd_conf.c **** 
 141:Src/usbd_conf.c **** /**
 142:Src/usbd_conf.c ****   * @brief  Data Out stage callback.
 143:Src/usbd_conf.c ****   * @param  hpcd: PCD handle
 144:Src/usbd_conf.c ****   * @param  epnum: Endpoint number
 145:Src/usbd_conf.c ****   * @retval None
 146:Src/usbd_conf.c ****   */
 147:Src/usbd_conf.c **** #if (USE_HAL_PCD_REGISTER_CALLBACKS == 1U)
 148:Src/usbd_conf.c **** static void PCD_DataOutStageCallback(PCD_HandleTypeDef *hpcd, uint8_t epnum)
 149:Src/usbd_conf.c **** #else
 150:Src/usbd_conf.c **** void HAL_PCD_DataOutStageCallback(PCD_HandleTypeDef *hpcd, uint8_t epnum)
 151:Src/usbd_conf.c **** #endif /* USE_HAL_PCD_REGISTER_CALLBACKS */
 152:Src/usbd_conf.c **** {
 227              		.loc 1 152 0
 228              		.cfi_startproc
 229              		@ args = 0, pretend = 0, frame = 0
 230              		@ frame_needed = 0, uses_anonymous_args = 0
 231              	.LVL16:
 232 0000 08B5     		push	{r3, lr}
 233              	.LCFI6:
 234              		.cfi_def_cfa_offset 8
 235              		.cfi_offset 3, -8
 236              		.cfi_offset 14, -4
 153:Src/usbd_conf.c ****   USBD_LL_DataOutStage((USBD_HandleTypeDef*)hpcd->pData, epnum, hpcd->OUT_ep[epnum].xfer_buff);
 237              		.loc 1 153 0
 238 0002 01EBC102 		add	r2, r1, r1, lsl #3
 239 0006 9300     		lsls	r3, r2, #2
 240 0008 0344     		add	r3, r3, r0
 241 000a D3F86022 		ldr	r2, [r3, #608]
ARM GAS  C:\Users\82057\AppData\Local\Temp\ccdxrmdp.s 			page 8


 242 000e D0F8E004 		ldr	r0, [r0, #1248]
 243              	.LVL17:
 244 0012 FFF7FEFF 		bl	USBD_LL_DataOutStage
 245              	.LVL18:
 154:Src/usbd_conf.c **** }
 246              		.loc 1 154 0
 247 0016 08BD     		pop	{r3, pc}
 248              		.cfi_endproc
 249              	.LFE141:
 251              		.section	.text.HAL_PCD_DataInStageCallback,"ax",%progbits
 252              		.align	1
 253              		.global	HAL_PCD_DataInStageCallback
 254              		.syntax unified
 255              		.thumb
 256              		.thumb_func
 257              		.fpu fpv4-sp-d16
 259              	HAL_PCD_DataInStageCallback:
 260              	.LFB142:
 155:Src/usbd_conf.c **** 
 156:Src/usbd_conf.c **** /**
 157:Src/usbd_conf.c ****   * @brief  Data In stage callback.
 158:Src/usbd_conf.c ****   * @param  hpcd: PCD handle
 159:Src/usbd_conf.c ****   * @param  epnum: Endpoint number
 160:Src/usbd_conf.c ****   * @retval None
 161:Src/usbd_conf.c ****   */
 162:Src/usbd_conf.c **** #if (USE_HAL_PCD_REGISTER_CALLBACKS == 1U)
 163:Src/usbd_conf.c **** static void PCD_DataInStageCallback(PCD_HandleTypeDef *hpcd, uint8_t epnum)
 164:Src/usbd_conf.c **** #else
 165:Src/usbd_conf.c **** void HAL_PCD_DataInStageCallback(PCD_HandleTypeDef *hpcd, uint8_t epnum)
 166:Src/usbd_conf.c **** #endif /* USE_HAL_PCD_REGISTER_CALLBACKS */
 167:Src/usbd_conf.c **** {
 261              		.loc 1 167 0
 262              		.cfi_startproc
 263              		@ args = 0, pretend = 0, frame = 0
 264              		@ frame_needed = 0, uses_anonymous_args = 0
 265              	.LVL19:
 266 0000 08B5     		push	{r3, lr}
 267              	.LCFI7:
 268              		.cfi_def_cfa_offset 8
 269              		.cfi_offset 3, -8
 270              		.cfi_offset 14, -4
 168:Src/usbd_conf.c ****   USBD_LL_DataInStage((USBD_HandleTypeDef*)hpcd->pData, epnum, hpcd->IN_ep[epnum].xfer_buff);
 271              		.loc 1 168 0
 272 0002 01EBC102 		add	r2, r1, r1, lsl #3
 273 0006 9300     		lsls	r3, r2, #2
 274 0008 0344     		add	r3, r3, r0
 275 000a 1A6A     		ldr	r2, [r3, #32]
 276 000c D0F8E004 		ldr	r0, [r0, #1248]
 277              	.LVL20:
 278 0010 FFF7FEFF 		bl	USBD_LL_DataInStage
 279              	.LVL21:
 169:Src/usbd_conf.c **** }
 280              		.loc 1 169 0
 281 0014 08BD     		pop	{r3, pc}
 282              		.cfi_endproc
 283              	.LFE142:
 285              		.section	.text.HAL_PCD_SOFCallback,"ax",%progbits
ARM GAS  C:\Users\82057\AppData\Local\Temp\ccdxrmdp.s 			page 9


 286              		.align	1
 287              		.global	HAL_PCD_SOFCallback
 288              		.syntax unified
 289              		.thumb
 290              		.thumb_func
 291              		.fpu fpv4-sp-d16
 293              	HAL_PCD_SOFCallback:
 294              	.LFB143:
 170:Src/usbd_conf.c **** 
 171:Src/usbd_conf.c **** /**
 172:Src/usbd_conf.c ****   * @brief  SOF callback.
 173:Src/usbd_conf.c ****   * @param  hpcd: PCD handle
 174:Src/usbd_conf.c ****   * @retval None
 175:Src/usbd_conf.c ****   */
 176:Src/usbd_conf.c **** #if (USE_HAL_PCD_REGISTER_CALLBACKS == 1U)
 177:Src/usbd_conf.c **** static void PCD_SOFCallback(PCD_HandleTypeDef *hpcd)
 178:Src/usbd_conf.c **** #else
 179:Src/usbd_conf.c **** void HAL_PCD_SOFCallback(PCD_HandleTypeDef *hpcd)
 180:Src/usbd_conf.c **** #endif /* USE_HAL_PCD_REGISTER_CALLBACKS */
 181:Src/usbd_conf.c **** {
 295              		.loc 1 181 0
 296              		.cfi_startproc
 297              		@ args = 0, pretend = 0, frame = 0
 298              		@ frame_needed = 0, uses_anonymous_args = 0
 299              	.LVL22:
 300 0000 08B5     		push	{r3, lr}
 301              	.LCFI8:
 302              		.cfi_def_cfa_offset 8
 303              		.cfi_offset 3, -8
 304              		.cfi_offset 14, -4
 182:Src/usbd_conf.c ****   USBD_LL_SOF((USBD_HandleTypeDef*)hpcd->pData);
 305              		.loc 1 182 0
 306 0002 D0F8E004 		ldr	r0, [r0, #1248]
 307              	.LVL23:
 308 0006 FFF7FEFF 		bl	USBD_LL_SOF
 309              	.LVL24:
 183:Src/usbd_conf.c **** }
 310              		.loc 1 183 0
 311 000a 08BD     		pop	{r3, pc}
 312              		.cfi_endproc
 313              	.LFE143:
 315              		.section	.text.HAL_PCD_ResetCallback,"ax",%progbits
 316              		.align	1
 317              		.global	HAL_PCD_ResetCallback
 318              		.syntax unified
 319              		.thumb
 320              		.thumb_func
 321              		.fpu fpv4-sp-d16
 323              	HAL_PCD_ResetCallback:
 324              	.LFB144:
 184:Src/usbd_conf.c **** 
 185:Src/usbd_conf.c **** /**
 186:Src/usbd_conf.c ****   * @brief  Reset callback.
 187:Src/usbd_conf.c ****   * @param  hpcd: PCD handle
 188:Src/usbd_conf.c ****   * @retval None
 189:Src/usbd_conf.c ****   */
 190:Src/usbd_conf.c **** #if (USE_HAL_PCD_REGISTER_CALLBACKS == 1U)
ARM GAS  C:\Users\82057\AppData\Local\Temp\ccdxrmdp.s 			page 10


 191:Src/usbd_conf.c **** static void PCD_ResetCallback(PCD_HandleTypeDef *hpcd)
 192:Src/usbd_conf.c **** #else
 193:Src/usbd_conf.c **** void HAL_PCD_ResetCallback(PCD_HandleTypeDef *hpcd)
 194:Src/usbd_conf.c **** #endif /* USE_HAL_PCD_REGISTER_CALLBACKS */
 195:Src/usbd_conf.c **** {
 325              		.loc 1 195 0
 326              		.cfi_startproc
 327              		@ args = 0, pretend = 0, frame = 0
 328              		@ frame_needed = 0, uses_anonymous_args = 0
 329              	.LVL25:
 330 0000 10B5     		push	{r4, lr}
 331              	.LCFI9:
 332              		.cfi_def_cfa_offset 8
 333              		.cfi_offset 4, -8
 334              		.cfi_offset 14, -4
 335 0002 0446     		mov	r4, r0
 336              	.LVL26:
 196:Src/usbd_conf.c ****   USBD_SpeedTypeDef speed = USBD_SPEED_FULL;
 197:Src/usbd_conf.c **** 
 198:Src/usbd_conf.c ****   if ( hpcd->Init.speed == PCD_SPEED_HIGH)
 337              		.loc 1 198 0
 338 0004 C379     		ldrb	r3, [r0, #7]	@ zero_extendqisi2
 339 0006 2BB1     		cbz	r3, .L23
 199:Src/usbd_conf.c ****   {
 200:Src/usbd_conf.c ****     speed = USBD_SPEED_HIGH;
 201:Src/usbd_conf.c ****   }
 202:Src/usbd_conf.c ****   else if ( hpcd->Init.speed == PCD_SPEED_FULL)
 340              		.loc 1 202 0
 341 0008 022B     		cmp	r3, #2
 342 000a 0DD0     		beq	.L24
 203:Src/usbd_conf.c ****   {
 204:Src/usbd_conf.c ****     speed = USBD_SPEED_FULL;
 205:Src/usbd_conf.c ****   }
 206:Src/usbd_conf.c ****   else
 207:Src/usbd_conf.c ****   {
 208:Src/usbd_conf.c ****     Error_Handler();
 343              		.loc 1 208 0
 344 000c FFF7FEFF 		bl	Error_Handler
 345              	.LVL27:
 196:Src/usbd_conf.c **** 
 346              		.loc 1 196 0
 347 0010 0121     		movs	r1, #1
 348 0012 00E0     		b	.L22
 349              	.LVL28:
 350              	.L23:
 200:Src/usbd_conf.c ****   }
 351              		.loc 1 200 0
 352 0014 0021     		movs	r1, #0
 353              	.LVL29:
 354              	.L22:
 209:Src/usbd_conf.c ****   }
 210:Src/usbd_conf.c ****     /* Set Speed. */
 211:Src/usbd_conf.c ****   USBD_LL_SetSpeed((USBD_HandleTypeDef*)hpcd->pData, speed);
 355              		.loc 1 211 0
 356 0016 D4F8E004 		ldr	r0, [r4, #1248]
 357 001a FFF7FEFF 		bl	USBD_LL_SetSpeed
 358              	.LVL30:
ARM GAS  C:\Users\82057\AppData\Local\Temp\ccdxrmdp.s 			page 11


 212:Src/usbd_conf.c **** 
 213:Src/usbd_conf.c ****   /* Reset Device. */
 214:Src/usbd_conf.c ****   USBD_LL_Reset((USBD_HandleTypeDef*)hpcd->pData);
 359              		.loc 1 214 0
 360 001e D4F8E004 		ldr	r0, [r4, #1248]
 361 0022 FFF7FEFF 		bl	USBD_LL_Reset
 362              	.LVL31:
 215:Src/usbd_conf.c **** }
 363              		.loc 1 215 0
 364 0026 10BD     		pop	{r4, pc}
 365              	.LVL32:
 366              	.L24:
 204:Src/usbd_conf.c ****   }
 367              		.loc 1 204 0
 368 0028 0121     		movs	r1, #1
 369 002a F4E7     		b	.L22
 370              		.cfi_endproc
 371              	.LFE144:
 373              		.section	.text.HAL_PCD_SuspendCallback,"ax",%progbits
 374              		.align	1
 375              		.global	HAL_PCD_SuspendCallback
 376              		.syntax unified
 377              		.thumb
 378              		.thumb_func
 379              		.fpu fpv4-sp-d16
 381              	HAL_PCD_SuspendCallback:
 382              	.LFB145:
 216:Src/usbd_conf.c **** 
 217:Src/usbd_conf.c **** /**
 218:Src/usbd_conf.c ****   * @brief  Suspend callback.
 219:Src/usbd_conf.c ****   * When Low power mode is enabled the debug cannot be used (IAR, Keil doesn't support it)
 220:Src/usbd_conf.c ****   * @param  hpcd: PCD handle
 221:Src/usbd_conf.c ****   * @retval None
 222:Src/usbd_conf.c ****   */
 223:Src/usbd_conf.c **** #if (USE_HAL_PCD_REGISTER_CALLBACKS == 1U)
 224:Src/usbd_conf.c **** static void PCD_SuspendCallback(PCD_HandleTypeDef *hpcd)
 225:Src/usbd_conf.c **** #else
 226:Src/usbd_conf.c **** void HAL_PCD_SuspendCallback(PCD_HandleTypeDef *hpcd)
 227:Src/usbd_conf.c **** #endif /* USE_HAL_PCD_REGISTER_CALLBACKS */
 228:Src/usbd_conf.c **** {
 383              		.loc 1 228 0
 384              		.cfi_startproc
 385              		@ args = 0, pretend = 0, frame = 0
 386              		@ frame_needed = 0, uses_anonymous_args = 0
 387              	.LVL33:
 388 0000 10B5     		push	{r4, lr}
 389              	.LCFI10:
 390              		.cfi_def_cfa_offset 8
 391              		.cfi_offset 4, -8
 392              		.cfi_offset 14, -4
 393 0002 0446     		mov	r4, r0
 229:Src/usbd_conf.c ****   /* Inform USB library that core enters in suspend Mode. */
 230:Src/usbd_conf.c ****   USBD_LL_Suspend((USBD_HandleTypeDef*)hpcd->pData);
 394              		.loc 1 230 0
 395 0004 D0F8E004 		ldr	r0, [r0, #1248]
 396              	.LVL34:
 397 0008 FFF7FEFF 		bl	USBD_LL_Suspend
ARM GAS  C:\Users\82057\AppData\Local\Temp\ccdxrmdp.s 			page 12


 398              	.LVL35:
 231:Src/usbd_conf.c ****   __HAL_PCD_GATE_PHYCLOCK(hpcd);
 399              		.loc 1 231 0
 400 000c 2268     		ldr	r2, [r4]
 401 000e D2F8003E 		ldr	r3, [r2, #3584]
 402 0012 43F00103 		orr	r3, r3, #1
 403 0016 C2F8003E 		str	r3, [r2, #3584]
 232:Src/usbd_conf.c ****   /* Enter in STOP mode. */
 233:Src/usbd_conf.c ****   /* USER CODE BEGIN 2 */
 234:Src/usbd_conf.c ****   if (hpcd->Init.low_power_enable)
 404              		.loc 1 234 0
 405 001a E37A     		ldrb	r3, [r4, #11]	@ zero_extendqisi2
 406 001c 23B1     		cbz	r3, .L26
 235:Src/usbd_conf.c ****   {
 236:Src/usbd_conf.c ****     /* Set SLEEPDEEP bit and SleepOnExit of Cortex System Control Register. */
 237:Src/usbd_conf.c ****     SCB->SCR |= (uint32_t)((uint32_t)(SCB_SCR_SLEEPDEEP_Msk | SCB_SCR_SLEEPONEXIT_Msk));
 407              		.loc 1 237 0
 408 001e 034A     		ldr	r2, .L29
 409 0020 1369     		ldr	r3, [r2, #16]
 410 0022 43F00603 		orr	r3, r3, #6
 411 0026 1361     		str	r3, [r2, #16]
 412              	.L26:
 238:Src/usbd_conf.c ****   }
 239:Src/usbd_conf.c ****   /* USER CODE END 2 */
 240:Src/usbd_conf.c **** }
 413              		.loc 1 240 0
 414 0028 10BD     		pop	{r4, pc}
 415              	.LVL36:
 416              	.L30:
 417 002a 00BF     		.align	2
 418              	.L29:
 419 002c 00ED00E0 		.word	-536810240
 420              		.cfi_endproc
 421              	.LFE145:
 423              		.section	.text.HAL_PCD_ResumeCallback,"ax",%progbits
 424              		.align	1
 425              		.global	HAL_PCD_ResumeCallback
 426              		.syntax unified
 427              		.thumb
 428              		.thumb_func
 429              		.fpu fpv4-sp-d16
 431              	HAL_PCD_ResumeCallback:
 432              	.LFB146:
 241:Src/usbd_conf.c **** 
 242:Src/usbd_conf.c **** /**
 243:Src/usbd_conf.c ****   * @brief  Resume callback.
 244:Src/usbd_conf.c ****   * When Low power mode is enabled the debug cannot be used (IAR, Keil doesn't support it)
 245:Src/usbd_conf.c ****   * @param  hpcd: PCD handle
 246:Src/usbd_conf.c ****   * @retval None
 247:Src/usbd_conf.c ****   */
 248:Src/usbd_conf.c **** #if (USE_HAL_PCD_REGISTER_CALLBACKS == 1U)
 249:Src/usbd_conf.c **** static void PCD_ResumeCallback(PCD_HandleTypeDef *hpcd)
 250:Src/usbd_conf.c **** #else
 251:Src/usbd_conf.c **** void HAL_PCD_ResumeCallback(PCD_HandleTypeDef *hpcd)
 252:Src/usbd_conf.c **** #endif /* USE_HAL_PCD_REGISTER_CALLBACKS */
 253:Src/usbd_conf.c **** {
 433              		.loc 1 253 0
ARM GAS  C:\Users\82057\AppData\Local\Temp\ccdxrmdp.s 			page 13


 434              		.cfi_startproc
 435              		@ args = 0, pretend = 0, frame = 0
 436              		@ frame_needed = 0, uses_anonymous_args = 0
 437              	.LVL37:
 438 0000 08B5     		push	{r3, lr}
 439              	.LCFI11:
 440              		.cfi_def_cfa_offset 8
 441              		.cfi_offset 3, -8
 442              		.cfi_offset 14, -4
 254:Src/usbd_conf.c ****   /* USER CODE BEGIN 3 */
 255:Src/usbd_conf.c **** 
 256:Src/usbd_conf.c ****   /* USER CODE END 3 */
 257:Src/usbd_conf.c ****   USBD_LL_Resume((USBD_HandleTypeDef*)hpcd->pData);
 443              		.loc 1 257 0
 444 0002 D0F8E004 		ldr	r0, [r0, #1248]
 445              	.LVL38:
 446 0006 FFF7FEFF 		bl	USBD_LL_Resume
 447              	.LVL39:
 258:Src/usbd_conf.c **** }
 448              		.loc 1 258 0
 449 000a 08BD     		pop	{r3, pc}
 450              		.cfi_endproc
 451              	.LFE146:
 453              		.section	.text.HAL_PCD_ISOOUTIncompleteCallback,"ax",%progbits
 454              		.align	1
 455              		.global	HAL_PCD_ISOOUTIncompleteCallback
 456              		.syntax unified
 457              		.thumb
 458              		.thumb_func
 459              		.fpu fpv4-sp-d16
 461              	HAL_PCD_ISOOUTIncompleteCallback:
 462              	.LFB147:
 259:Src/usbd_conf.c **** 
 260:Src/usbd_conf.c **** /**
 261:Src/usbd_conf.c ****   * @brief  ISOOUTIncomplete callback.
 262:Src/usbd_conf.c ****   * @param  hpcd: PCD handle
 263:Src/usbd_conf.c ****   * @param  epnum: Endpoint number
 264:Src/usbd_conf.c ****   * @retval None
 265:Src/usbd_conf.c ****   */
 266:Src/usbd_conf.c **** #if (USE_HAL_PCD_REGISTER_CALLBACKS == 1U)
 267:Src/usbd_conf.c **** static void PCD_ISOOUTIncompleteCallback(PCD_HandleTypeDef *hpcd, uint8_t epnum)
 268:Src/usbd_conf.c **** #else
 269:Src/usbd_conf.c **** void HAL_PCD_ISOOUTIncompleteCallback(PCD_HandleTypeDef *hpcd, uint8_t epnum)
 270:Src/usbd_conf.c **** #endif /* USE_HAL_PCD_REGISTER_CALLBACKS */
 271:Src/usbd_conf.c **** {
 463              		.loc 1 271 0
 464              		.cfi_startproc
 465              		@ args = 0, pretend = 0, frame = 0
 466              		@ frame_needed = 0, uses_anonymous_args = 0
 467              	.LVL40:
 468 0000 08B5     		push	{r3, lr}
 469              	.LCFI12:
 470              		.cfi_def_cfa_offset 8
 471              		.cfi_offset 3, -8
 472              		.cfi_offset 14, -4
 272:Src/usbd_conf.c ****   USBD_LL_IsoOUTIncomplete((USBD_HandleTypeDef*)hpcd->pData, epnum);
 473              		.loc 1 272 0
ARM GAS  C:\Users\82057\AppData\Local\Temp\ccdxrmdp.s 			page 14


 474 0002 D0F8E004 		ldr	r0, [r0, #1248]
 475              	.LVL41:
 476 0006 FFF7FEFF 		bl	USBD_LL_IsoOUTIncomplete
 477              	.LVL42:
 273:Src/usbd_conf.c **** }
 478              		.loc 1 273 0
 479 000a 08BD     		pop	{r3, pc}
 480              		.cfi_endproc
 481              	.LFE147:
 483              		.section	.text.HAL_PCD_ISOINIncompleteCallback,"ax",%progbits
 484              		.align	1
 485              		.global	HAL_PCD_ISOINIncompleteCallback
 486              		.syntax unified
 487              		.thumb
 488              		.thumb_func
 489              		.fpu fpv4-sp-d16
 491              	HAL_PCD_ISOINIncompleteCallback:
 492              	.LFB148:
 274:Src/usbd_conf.c **** 
 275:Src/usbd_conf.c **** /**
 276:Src/usbd_conf.c ****   * @brief  ISOINIncomplete callback.
 277:Src/usbd_conf.c ****   * @param  hpcd: PCD handle
 278:Src/usbd_conf.c ****   * @param  epnum: Endpoint number
 279:Src/usbd_conf.c ****   * @retval None
 280:Src/usbd_conf.c ****   */
 281:Src/usbd_conf.c **** #if (USE_HAL_PCD_REGISTER_CALLBACKS == 1U)
 282:Src/usbd_conf.c **** static void PCD_ISOINIncompleteCallback(PCD_HandleTypeDef *hpcd, uint8_t epnum)
 283:Src/usbd_conf.c **** #else
 284:Src/usbd_conf.c **** void HAL_PCD_ISOINIncompleteCallback(PCD_HandleTypeDef *hpcd, uint8_t epnum)
 285:Src/usbd_conf.c **** #endif /* USE_HAL_PCD_REGISTER_CALLBACKS */
 286:Src/usbd_conf.c **** {
 493              		.loc 1 286 0
 494              		.cfi_startproc
 495              		@ args = 0, pretend = 0, frame = 0
 496              		@ frame_needed = 0, uses_anonymous_args = 0
 497              	.LVL43:
 498 0000 08B5     		push	{r3, lr}
 499              	.LCFI13:
 500              		.cfi_def_cfa_offset 8
 501              		.cfi_offset 3, -8
 502              		.cfi_offset 14, -4
 287:Src/usbd_conf.c ****   USBD_LL_IsoINIncomplete((USBD_HandleTypeDef*)hpcd->pData, epnum);
 503              		.loc 1 287 0
 504 0002 D0F8E004 		ldr	r0, [r0, #1248]
 505              	.LVL44:
 506 0006 FFF7FEFF 		bl	USBD_LL_IsoINIncomplete
 507              	.LVL45:
 288:Src/usbd_conf.c **** }
 508              		.loc 1 288 0
 509 000a 08BD     		pop	{r3, pc}
 510              		.cfi_endproc
 511              	.LFE148:
 513              		.section	.text.HAL_PCD_ConnectCallback,"ax",%progbits
 514              		.align	1
 515              		.global	HAL_PCD_ConnectCallback
 516              		.syntax unified
 517              		.thumb
ARM GAS  C:\Users\82057\AppData\Local\Temp\ccdxrmdp.s 			page 15


 518              		.thumb_func
 519              		.fpu fpv4-sp-d16
 521              	HAL_PCD_ConnectCallback:
 522              	.LFB149:
 289:Src/usbd_conf.c **** 
 290:Src/usbd_conf.c **** /**
 291:Src/usbd_conf.c ****   * @brief  Connect callback.
 292:Src/usbd_conf.c ****   * @param  hpcd: PCD handle
 293:Src/usbd_conf.c ****   * @retval None
 294:Src/usbd_conf.c ****   */
 295:Src/usbd_conf.c **** #if (USE_HAL_PCD_REGISTER_CALLBACKS == 1U)
 296:Src/usbd_conf.c **** static void PCD_ConnectCallback(PCD_HandleTypeDef *hpcd)
 297:Src/usbd_conf.c **** #else
 298:Src/usbd_conf.c **** void HAL_PCD_ConnectCallback(PCD_HandleTypeDef *hpcd)
 299:Src/usbd_conf.c **** #endif /* USE_HAL_PCD_REGISTER_CALLBACKS */
 300:Src/usbd_conf.c **** {
 523              		.loc 1 300 0
 524              		.cfi_startproc
 525              		@ args = 0, pretend = 0, frame = 0
 526              		@ frame_needed = 0, uses_anonymous_args = 0
 527              	.LVL46:
 528 0000 08B5     		push	{r3, lr}
 529              	.LCFI14:
 530              		.cfi_def_cfa_offset 8
 531              		.cfi_offset 3, -8
 532              		.cfi_offset 14, -4
 301:Src/usbd_conf.c ****   USBD_LL_DevConnected((USBD_HandleTypeDef*)hpcd->pData);
 533              		.loc 1 301 0
 534 0002 D0F8E004 		ldr	r0, [r0, #1248]
 535              	.LVL47:
 536 0006 FFF7FEFF 		bl	USBD_LL_DevConnected
 537              	.LVL48:
 302:Src/usbd_conf.c **** }
 538              		.loc 1 302 0
 539 000a 08BD     		pop	{r3, pc}
 540              		.cfi_endproc
 541              	.LFE149:
 543              		.section	.text.HAL_PCD_DisconnectCallback,"ax",%progbits
 544              		.align	1
 545              		.global	HAL_PCD_DisconnectCallback
 546              		.syntax unified
 547              		.thumb
 548              		.thumb_func
 549              		.fpu fpv4-sp-d16
 551              	HAL_PCD_DisconnectCallback:
 552              	.LFB150:
 303:Src/usbd_conf.c **** 
 304:Src/usbd_conf.c **** /**
 305:Src/usbd_conf.c ****   * @brief  Disconnect callback.
 306:Src/usbd_conf.c ****   * @param  hpcd: PCD handle
 307:Src/usbd_conf.c ****   * @retval None
 308:Src/usbd_conf.c ****   */
 309:Src/usbd_conf.c **** #if (USE_HAL_PCD_REGISTER_CALLBACKS == 1U)
 310:Src/usbd_conf.c **** static void PCD_DisconnectCallback(PCD_HandleTypeDef *hpcd)
 311:Src/usbd_conf.c **** #else
 312:Src/usbd_conf.c **** void HAL_PCD_DisconnectCallback(PCD_HandleTypeDef *hpcd)
 313:Src/usbd_conf.c **** #endif /* USE_HAL_PCD_REGISTER_CALLBACKS */
ARM GAS  C:\Users\82057\AppData\Local\Temp\ccdxrmdp.s 			page 16


 314:Src/usbd_conf.c **** {
 553              		.loc 1 314 0
 554              		.cfi_startproc
 555              		@ args = 0, pretend = 0, frame = 0
 556              		@ frame_needed = 0, uses_anonymous_args = 0
 557              	.LVL49:
 558 0000 08B5     		push	{r3, lr}
 559              	.LCFI15:
 560              		.cfi_def_cfa_offset 8
 561              		.cfi_offset 3, -8
 562              		.cfi_offset 14, -4
 315:Src/usbd_conf.c ****   USBD_LL_DevDisconnected((USBD_HandleTypeDef*)hpcd->pData);
 563              		.loc 1 315 0
 564 0002 D0F8E004 		ldr	r0, [r0, #1248]
 565              	.LVL50:
 566 0006 FFF7FEFF 		bl	USBD_LL_DevDisconnected
 567              	.LVL51:
 316:Src/usbd_conf.c **** }
 568              		.loc 1 316 0
 569 000a 08BD     		pop	{r3, pc}
 570              		.cfi_endproc
 571              	.LFE150:
 573              		.section	.text.USBD_LL_Init,"ax",%progbits
 574              		.align	1
 575              		.global	USBD_LL_Init
 576              		.syntax unified
 577              		.thumb
 578              		.thumb_func
 579              		.fpu fpv4-sp-d16
 581              	USBD_LL_Init:
 582              	.LFB151:
 317:Src/usbd_conf.c **** 
 318:Src/usbd_conf.c **** /*******************************************************************************
 319:Src/usbd_conf.c ****                        LL Driver Interface (USB Device Library --> PCD)
 320:Src/usbd_conf.c **** *******************************************************************************/
 321:Src/usbd_conf.c **** 
 322:Src/usbd_conf.c **** /**
 323:Src/usbd_conf.c ****   * @brief  Initializes the low level portion of the device driver.
 324:Src/usbd_conf.c ****   * @param  pdev: Device handle
 325:Src/usbd_conf.c ****   * @retval USBD status
 326:Src/usbd_conf.c ****   */
 327:Src/usbd_conf.c **** USBD_StatusTypeDef USBD_LL_Init(USBD_HandleTypeDef *pdev)
 328:Src/usbd_conf.c **** {
 583              		.loc 1 328 0
 584              		.cfi_startproc
 585              		@ args = 0, pretend = 0, frame = 0
 586              		@ frame_needed = 0, uses_anonymous_args = 0
 587              	.LVL52:
 329:Src/usbd_conf.c ****   /* Init USB Ip. */
 330:Src/usbd_conf.c ****   if (pdev->id == DEVICE_FS) {
 588              		.loc 1 330 0
 589 0000 0378     		ldrb	r3, [r0]	@ zero_extendqisi2
 590 0002 0BB1     		cbz	r3, .L48
 331:Src/usbd_conf.c ****   /* Link the driver to the stack. */
 332:Src/usbd_conf.c ****   hpcd_USB_OTG_FS.pData = pdev;
 333:Src/usbd_conf.c ****   pdev->pData = &hpcd_USB_OTG_FS;
 334:Src/usbd_conf.c **** 
ARM GAS  C:\Users\82057\AppData\Local\Temp\ccdxrmdp.s 			page 17


 335:Src/usbd_conf.c ****   hpcd_USB_OTG_FS.Instance = USB_OTG_FS;
 336:Src/usbd_conf.c ****   hpcd_USB_OTG_FS.Init.dev_endpoints = 4;
 337:Src/usbd_conf.c ****   hpcd_USB_OTG_FS.Init.speed = PCD_SPEED_FULL;
 338:Src/usbd_conf.c ****   hpcd_USB_OTG_FS.Init.dma_enable = DISABLE;
 339:Src/usbd_conf.c ****   hpcd_USB_OTG_FS.Init.phy_itface = PCD_PHY_EMBEDDED;
 340:Src/usbd_conf.c ****   hpcd_USB_OTG_FS.Init.Sof_enable = DISABLE;
 341:Src/usbd_conf.c ****   hpcd_USB_OTG_FS.Init.low_power_enable = DISABLE;
 342:Src/usbd_conf.c ****   hpcd_USB_OTG_FS.Init.lpm_enable = DISABLE;
 343:Src/usbd_conf.c ****   hpcd_USB_OTG_FS.Init.vbus_sensing_enable = DISABLE;
 344:Src/usbd_conf.c ****   hpcd_USB_OTG_FS.Init.use_dedicated_ep1 = DISABLE;
 345:Src/usbd_conf.c ****   if (HAL_PCD_Init(&hpcd_USB_OTG_FS) != HAL_OK)
 346:Src/usbd_conf.c ****   {
 347:Src/usbd_conf.c ****     Error_Handler( );
 348:Src/usbd_conf.c ****   }
 349:Src/usbd_conf.c **** 
 350:Src/usbd_conf.c **** #if (USE_HAL_PCD_REGISTER_CALLBACKS == 1U)
 351:Src/usbd_conf.c ****   /* Register USB PCD CallBacks */
 352:Src/usbd_conf.c ****   HAL_PCD_RegisterCallback(&hpcd_USB_OTG_FS, HAL_PCD_SOF_CB_ID, PCD_SOFCallback);
 353:Src/usbd_conf.c ****   HAL_PCD_RegisterCallback(&hpcd_USB_OTG_FS, HAL_PCD_SETUPSTAGE_CB_ID, PCD_SetupStageCallback);
 354:Src/usbd_conf.c ****   HAL_PCD_RegisterCallback(&hpcd_USB_OTG_FS, HAL_PCD_RESET_CB_ID, PCD_ResetCallback);
 355:Src/usbd_conf.c ****   HAL_PCD_RegisterCallback(&hpcd_USB_OTG_FS, HAL_PCD_SUSPEND_CB_ID, PCD_SuspendCallback);
 356:Src/usbd_conf.c ****   HAL_PCD_RegisterCallback(&hpcd_USB_OTG_FS, HAL_PCD_RESUME_CB_ID, PCD_ResumeCallback);
 357:Src/usbd_conf.c ****   HAL_PCD_RegisterCallback(&hpcd_USB_OTG_FS, HAL_PCD_CONNECT_CB_ID, PCD_ConnectCallback);
 358:Src/usbd_conf.c ****   HAL_PCD_RegisterCallback(&hpcd_USB_OTG_FS, HAL_PCD_DISCONNECT_CB_ID, PCD_DisconnectCallback);
 359:Src/usbd_conf.c **** 
 360:Src/usbd_conf.c ****   HAL_PCD_RegisterDataOutStageCallback(&hpcd_USB_OTG_FS, PCD_DataOutStageCallback);
 361:Src/usbd_conf.c ****   HAL_PCD_RegisterDataInStageCallback(&hpcd_USB_OTG_FS, PCD_DataInStageCallback);
 362:Src/usbd_conf.c ****   HAL_PCD_RegisterIsoOutIncpltCallback(&hpcd_USB_OTG_FS, PCD_ISOOUTIncompleteCallback);
 363:Src/usbd_conf.c ****   HAL_PCD_RegisterIsoInIncpltCallback(&hpcd_USB_OTG_FS, PCD_ISOINIncompleteCallback);
 364:Src/usbd_conf.c **** #endif /* USE_HAL_PCD_REGISTER_CALLBACKS */
 365:Src/usbd_conf.c ****   HAL_PCDEx_SetRxFiFo(&hpcd_USB_OTG_FS, 0x80);
 366:Src/usbd_conf.c ****   HAL_PCDEx_SetTxFiFo(&hpcd_USB_OTG_FS, 0, 0x40);
 367:Src/usbd_conf.c ****   HAL_PCDEx_SetTxFiFo(&hpcd_USB_OTG_FS, 1, 0x80);
 368:Src/usbd_conf.c ****   }
 369:Src/usbd_conf.c ****   return USBD_OK;
 370:Src/usbd_conf.c **** }
 591              		.loc 1 370 0
 592 0004 0020     		movs	r0, #0
 593              	.LVL53:
 594 0006 7047     		bx	lr
 595              	.LVL54:
 596              	.L48:
 328:Src/usbd_conf.c ****   /* Init USB Ip. */
 597              		.loc 1 328 0
 598 0008 10B5     		push	{r4, lr}
 599              	.LCFI16:
 600              		.cfi_def_cfa_offset 8
 601              		.cfi_offset 4, -8
 602              		.cfi_offset 14, -4
 603 000a 0346     		mov	r3, r0
 332:Src/usbd_conf.c ****   pdev->pData = &hpcd_USB_OTG_FS;
 604              		.loc 1 332 0
 605 000c 1548     		ldr	r0, .L50
 606              	.LVL55:
 607 000e C0F8E034 		str	r3, [r0, #1248]
 333:Src/usbd_conf.c **** 
 608              		.loc 1 333 0
ARM GAS  C:\Users\82057\AppData\Local\Temp\ccdxrmdp.s 			page 18


 609 0012 C3F8C802 		str	r0, [r3, #712]
 335:Src/usbd_conf.c ****   hpcd_USB_OTG_FS.Init.dev_endpoints = 4;
 610              		.loc 1 335 0
 611 0016 4FF0A043 		mov	r3, #1342177280
 612              	.LVL56:
 613 001a 0360     		str	r3, [r0]
 336:Src/usbd_conf.c ****   hpcd_USB_OTG_FS.Init.speed = PCD_SPEED_FULL;
 614              		.loc 1 336 0
 615 001c 0423     		movs	r3, #4
 616 001e 0371     		strb	r3, [r0, #4]
 337:Src/usbd_conf.c ****   hpcd_USB_OTG_FS.Init.dma_enable = DISABLE;
 617              		.loc 1 337 0
 618 0020 0222     		movs	r2, #2
 619 0022 C271     		strb	r2, [r0, #7]
 338:Src/usbd_conf.c ****   hpcd_USB_OTG_FS.Init.phy_itface = PCD_PHY_EMBEDDED;
 620              		.loc 1 338 0
 621 0024 0023     		movs	r3, #0
 622 0026 8371     		strb	r3, [r0, #6]
 339:Src/usbd_conf.c ****   hpcd_USB_OTG_FS.Init.Sof_enable = DISABLE;
 623              		.loc 1 339 0
 624 0028 4272     		strb	r2, [r0, #9]
 340:Src/usbd_conf.c ****   hpcd_USB_OTG_FS.Init.low_power_enable = DISABLE;
 625              		.loc 1 340 0
 626 002a 8372     		strb	r3, [r0, #10]
 341:Src/usbd_conf.c ****   hpcd_USB_OTG_FS.Init.lpm_enable = DISABLE;
 627              		.loc 1 341 0
 628 002c C372     		strb	r3, [r0, #11]
 342:Src/usbd_conf.c ****   hpcd_USB_OTG_FS.Init.vbus_sensing_enable = DISABLE;
 629              		.loc 1 342 0
 630 002e 0373     		strb	r3, [r0, #12]
 343:Src/usbd_conf.c ****   hpcd_USB_OTG_FS.Init.use_dedicated_ep1 = DISABLE;
 631              		.loc 1 343 0
 632 0030 8373     		strb	r3, [r0, #14]
 344:Src/usbd_conf.c ****   if (HAL_PCD_Init(&hpcd_USB_OTG_FS) != HAL_OK)
 633              		.loc 1 344 0
 634 0032 C373     		strb	r3, [r0, #15]
 345:Src/usbd_conf.c ****   {
 635              		.loc 1 345 0
 636 0034 FFF7FEFF 		bl	HAL_PCD_Init
 637              	.LVL57:
 638 0038 80B9     		cbnz	r0, .L49
 639              	.L43:
 365:Src/usbd_conf.c ****   HAL_PCDEx_SetTxFiFo(&hpcd_USB_OTG_FS, 0, 0x40);
 640              		.loc 1 365 0
 641 003a 0A4C     		ldr	r4, .L50
 642 003c 8021     		movs	r1, #128
 643 003e 2046     		mov	r0, r4
 644 0040 FFF7FEFF 		bl	HAL_PCDEx_SetRxFiFo
 645              	.LVL58:
 366:Src/usbd_conf.c ****   HAL_PCDEx_SetTxFiFo(&hpcd_USB_OTG_FS, 1, 0x80);
 646              		.loc 1 366 0
 647 0044 4022     		movs	r2, #64
 648 0046 0021     		movs	r1, #0
 649 0048 2046     		mov	r0, r4
 650 004a FFF7FEFF 		bl	HAL_PCDEx_SetTxFiFo
 651              	.LVL59:
 367:Src/usbd_conf.c ****   }
ARM GAS  C:\Users\82057\AppData\Local\Temp\ccdxrmdp.s 			page 19


 652              		.loc 1 367 0
 653 004e 8022     		movs	r2, #128
 654 0050 0121     		movs	r1, #1
 655 0052 2046     		mov	r0, r4
 656 0054 FFF7FEFF 		bl	HAL_PCDEx_SetTxFiFo
 657              	.LVL60:
 658              		.loc 1 370 0
 659 0058 0020     		movs	r0, #0
 660 005a 10BD     		pop	{r4, pc}
 661              	.L49:
 347:Src/usbd_conf.c ****   }
 662              		.loc 1 347 0
 663 005c FFF7FEFF 		bl	Error_Handler
 664              	.LVL61:
 665 0060 EBE7     		b	.L43
 666              	.L51:
 667 0062 00BF     		.align	2
 668              	.L50:
 669 0064 00000000 		.word	hpcd_USB_OTG_FS
 670              		.cfi_endproc
 671              	.LFE151:
 673              		.section	.text.USBD_LL_IsStallEP,"ax",%progbits
 674              		.align	1
 675              		.global	USBD_LL_IsStallEP
 676              		.syntax unified
 677              		.thumb
 678              		.thumb_func
 679              		.fpu fpv4-sp-d16
 681              	USBD_LL_IsStallEP:
 682              	.LFB160:
 371:Src/usbd_conf.c **** 
 372:Src/usbd_conf.c **** /**
 373:Src/usbd_conf.c ****   * @brief  De-Initializes the low level portion of the device driver.
 374:Src/usbd_conf.c ****   * @param  pdev: Device handle
 375:Src/usbd_conf.c ****   * @retval USBD status
 376:Src/usbd_conf.c ****   */
 377:Src/usbd_conf.c **** USBD_StatusTypeDef USBD_LL_DeInit(USBD_HandleTypeDef *pdev)
 378:Src/usbd_conf.c **** {
 379:Src/usbd_conf.c ****   HAL_StatusTypeDef hal_status = HAL_OK;
 380:Src/usbd_conf.c ****   USBD_StatusTypeDef usb_status = USBD_OK;
 381:Src/usbd_conf.c **** 
 382:Src/usbd_conf.c ****   hal_status = HAL_PCD_DeInit(pdev->pData);
 383:Src/usbd_conf.c **** 
 384:Src/usbd_conf.c ****   usb_status =  USBD_Get_USB_Status(hal_status);
 385:Src/usbd_conf.c **** 
 386:Src/usbd_conf.c ****   return usb_status;
 387:Src/usbd_conf.c **** }
 388:Src/usbd_conf.c **** 
 389:Src/usbd_conf.c **** /**
 390:Src/usbd_conf.c ****   * @brief  Starts the low level portion of the device driver.
 391:Src/usbd_conf.c ****   * @param  pdev: Device handle
 392:Src/usbd_conf.c ****   * @retval USBD status
 393:Src/usbd_conf.c ****   */
 394:Src/usbd_conf.c **** USBD_StatusTypeDef USBD_LL_Start(USBD_HandleTypeDef *pdev)
 395:Src/usbd_conf.c **** {
 396:Src/usbd_conf.c ****   HAL_StatusTypeDef hal_status = HAL_OK;
 397:Src/usbd_conf.c ****   USBD_StatusTypeDef usb_status = USBD_OK;
ARM GAS  C:\Users\82057\AppData\Local\Temp\ccdxrmdp.s 			page 20


 398:Src/usbd_conf.c **** 
 399:Src/usbd_conf.c ****   hal_status = HAL_PCD_Start(pdev->pData);
 400:Src/usbd_conf.c **** 
 401:Src/usbd_conf.c ****   usb_status =  USBD_Get_USB_Status(hal_status);
 402:Src/usbd_conf.c **** 
 403:Src/usbd_conf.c ****   return usb_status;
 404:Src/usbd_conf.c **** }
 405:Src/usbd_conf.c **** 
 406:Src/usbd_conf.c **** /**
 407:Src/usbd_conf.c ****   * @brief  Stops the low level portion of the device driver.
 408:Src/usbd_conf.c ****   * @param  pdev: Device handle
 409:Src/usbd_conf.c ****   * @retval USBD status
 410:Src/usbd_conf.c ****   */
 411:Src/usbd_conf.c **** USBD_StatusTypeDef USBD_LL_Stop(USBD_HandleTypeDef *pdev)
 412:Src/usbd_conf.c **** {
 413:Src/usbd_conf.c ****   HAL_StatusTypeDef hal_status = HAL_OK;
 414:Src/usbd_conf.c ****   USBD_StatusTypeDef usb_status = USBD_OK;
 415:Src/usbd_conf.c **** 
 416:Src/usbd_conf.c ****   hal_status = HAL_PCD_Stop(pdev->pData);
 417:Src/usbd_conf.c **** 
 418:Src/usbd_conf.c ****   usb_status =  USBD_Get_USB_Status(hal_status);
 419:Src/usbd_conf.c **** 
 420:Src/usbd_conf.c ****   return usb_status;
 421:Src/usbd_conf.c **** }
 422:Src/usbd_conf.c **** 
 423:Src/usbd_conf.c **** /**
 424:Src/usbd_conf.c ****   * @brief  Opens an endpoint of the low level driver.
 425:Src/usbd_conf.c ****   * @param  pdev: Device handle
 426:Src/usbd_conf.c ****   * @param  ep_addr: Endpoint number
 427:Src/usbd_conf.c ****   * @param  ep_type: Endpoint type
 428:Src/usbd_conf.c ****   * @param  ep_mps: Endpoint max packet size
 429:Src/usbd_conf.c ****   * @retval USBD status
 430:Src/usbd_conf.c ****   */
 431:Src/usbd_conf.c **** USBD_StatusTypeDef USBD_LL_OpenEP(USBD_HandleTypeDef *pdev, uint8_t ep_addr, uint8_t ep_type, uint1
 432:Src/usbd_conf.c **** {
 433:Src/usbd_conf.c ****   HAL_StatusTypeDef hal_status = HAL_OK;
 434:Src/usbd_conf.c ****   USBD_StatusTypeDef usb_status = USBD_OK;
 435:Src/usbd_conf.c **** 
 436:Src/usbd_conf.c ****   hal_status = HAL_PCD_EP_Open(pdev->pData, ep_addr, ep_mps, ep_type);
 437:Src/usbd_conf.c **** 
 438:Src/usbd_conf.c ****   usb_status =  USBD_Get_USB_Status(hal_status);
 439:Src/usbd_conf.c **** 
 440:Src/usbd_conf.c ****   return usb_status;
 441:Src/usbd_conf.c **** }
 442:Src/usbd_conf.c **** 
 443:Src/usbd_conf.c **** /**
 444:Src/usbd_conf.c ****   * @brief  Closes an endpoint of the low level driver.
 445:Src/usbd_conf.c ****   * @param  pdev: Device handle
 446:Src/usbd_conf.c ****   * @param  ep_addr: Endpoint number
 447:Src/usbd_conf.c ****   * @retval USBD status
 448:Src/usbd_conf.c ****   */
 449:Src/usbd_conf.c **** USBD_StatusTypeDef USBD_LL_CloseEP(USBD_HandleTypeDef *pdev, uint8_t ep_addr)
 450:Src/usbd_conf.c **** {
 451:Src/usbd_conf.c ****   HAL_StatusTypeDef hal_status = HAL_OK;
 452:Src/usbd_conf.c ****   USBD_StatusTypeDef usb_status = USBD_OK;
 453:Src/usbd_conf.c **** 
 454:Src/usbd_conf.c ****   hal_status = HAL_PCD_EP_Close(pdev->pData, ep_addr);
ARM GAS  C:\Users\82057\AppData\Local\Temp\ccdxrmdp.s 			page 21


 455:Src/usbd_conf.c **** 
 456:Src/usbd_conf.c ****   usb_status =  USBD_Get_USB_Status(hal_status);
 457:Src/usbd_conf.c **** 
 458:Src/usbd_conf.c ****   return usb_status;
 459:Src/usbd_conf.c **** }
 460:Src/usbd_conf.c **** 
 461:Src/usbd_conf.c **** /**
 462:Src/usbd_conf.c ****   * @brief  Flushes an endpoint of the Low Level Driver.
 463:Src/usbd_conf.c ****   * @param  pdev: Device handle
 464:Src/usbd_conf.c ****   * @param  ep_addr: Endpoint number
 465:Src/usbd_conf.c ****   * @retval USBD status
 466:Src/usbd_conf.c ****   */
 467:Src/usbd_conf.c **** USBD_StatusTypeDef USBD_LL_FlushEP(USBD_HandleTypeDef *pdev, uint8_t ep_addr)
 468:Src/usbd_conf.c **** {
 469:Src/usbd_conf.c ****   HAL_StatusTypeDef hal_status = HAL_OK;
 470:Src/usbd_conf.c ****   USBD_StatusTypeDef usb_status = USBD_OK;
 471:Src/usbd_conf.c **** 
 472:Src/usbd_conf.c ****   hal_status = HAL_PCD_EP_Flush(pdev->pData, ep_addr);
 473:Src/usbd_conf.c **** 
 474:Src/usbd_conf.c ****   usb_status =  USBD_Get_USB_Status(hal_status);
 475:Src/usbd_conf.c **** 
 476:Src/usbd_conf.c ****   return usb_status;
 477:Src/usbd_conf.c **** }
 478:Src/usbd_conf.c **** 
 479:Src/usbd_conf.c **** /**
 480:Src/usbd_conf.c ****   * @brief  Sets a Stall condition on an endpoint of the Low Level Driver.
 481:Src/usbd_conf.c ****   * @param  pdev: Device handle
 482:Src/usbd_conf.c ****   * @param  ep_addr: Endpoint number
 483:Src/usbd_conf.c ****   * @retval USBD status
 484:Src/usbd_conf.c ****   */
 485:Src/usbd_conf.c **** USBD_StatusTypeDef USBD_LL_StallEP(USBD_HandleTypeDef *pdev, uint8_t ep_addr)
 486:Src/usbd_conf.c **** {
 487:Src/usbd_conf.c ****   HAL_StatusTypeDef hal_status = HAL_OK;
 488:Src/usbd_conf.c ****   USBD_StatusTypeDef usb_status = USBD_OK;
 489:Src/usbd_conf.c **** 
 490:Src/usbd_conf.c ****   hal_status = HAL_PCD_EP_SetStall(pdev->pData, ep_addr);
 491:Src/usbd_conf.c **** 
 492:Src/usbd_conf.c ****   usb_status =  USBD_Get_USB_Status(hal_status);
 493:Src/usbd_conf.c **** 
 494:Src/usbd_conf.c ****   return usb_status;
 495:Src/usbd_conf.c **** }
 496:Src/usbd_conf.c **** 
 497:Src/usbd_conf.c **** /**
 498:Src/usbd_conf.c ****   * @brief  Clears a Stall condition on an endpoint of the Low Level Driver.
 499:Src/usbd_conf.c ****   * @param  pdev: Device handle
 500:Src/usbd_conf.c ****   * @param  ep_addr: Endpoint number
 501:Src/usbd_conf.c ****   * @retval USBD status
 502:Src/usbd_conf.c ****   */
 503:Src/usbd_conf.c **** USBD_StatusTypeDef USBD_LL_ClearStallEP(USBD_HandleTypeDef *pdev, uint8_t ep_addr)
 504:Src/usbd_conf.c **** {
 505:Src/usbd_conf.c ****   HAL_StatusTypeDef hal_status = HAL_OK;
 506:Src/usbd_conf.c ****   USBD_StatusTypeDef usb_status = USBD_OK;
 507:Src/usbd_conf.c **** 
 508:Src/usbd_conf.c ****   hal_status = HAL_PCD_EP_ClrStall(pdev->pData, ep_addr);
 509:Src/usbd_conf.c **** 
 510:Src/usbd_conf.c ****   usb_status =  USBD_Get_USB_Status(hal_status);
 511:Src/usbd_conf.c **** 
ARM GAS  C:\Users\82057\AppData\Local\Temp\ccdxrmdp.s 			page 22


 512:Src/usbd_conf.c ****   return usb_status;
 513:Src/usbd_conf.c **** }
 514:Src/usbd_conf.c **** 
 515:Src/usbd_conf.c **** /**
 516:Src/usbd_conf.c ****   * @brief  Returns Stall condition.
 517:Src/usbd_conf.c ****   * @param  pdev: Device handle
 518:Src/usbd_conf.c ****   * @param  ep_addr: Endpoint number
 519:Src/usbd_conf.c ****   * @retval Stall (1: Yes, 0: No)
 520:Src/usbd_conf.c ****   */
 521:Src/usbd_conf.c **** uint8_t USBD_LL_IsStallEP(USBD_HandleTypeDef *pdev, uint8_t ep_addr)
 522:Src/usbd_conf.c **** {
 683              		.loc 1 522 0
 684              		.cfi_startproc
 685              		@ args = 0, pretend = 0, frame = 0
 686              		@ frame_needed = 0, uses_anonymous_args = 0
 687              		@ link register save eliminated.
 688              	.LVL62:
 523:Src/usbd_conf.c ****   PCD_HandleTypeDef *hpcd = (PCD_HandleTypeDef*) pdev->pData;
 689              		.loc 1 523 0
 690 0000 D0F8C832 		ldr	r3, [r0, #712]
 691              	.LVL63:
 524:Src/usbd_conf.c **** 
 525:Src/usbd_conf.c ****   if((ep_addr & 0x80) == 0x80)
 692              		.loc 1 525 0
 693 0004 11F0800F 		tst	r1, #128
 694 0008 08D1     		bne	.L55
 526:Src/usbd_conf.c ****   {
 527:Src/usbd_conf.c ****     return hpcd->IN_ep[ep_addr & 0x7F].is_stall;
 528:Src/usbd_conf.c ****   }
 529:Src/usbd_conf.c ****   else
 530:Src/usbd_conf.c ****   {
 531:Src/usbd_conf.c ****     return hpcd->OUT_ep[ep_addr & 0x7F].is_stall;
 695              		.loc 1 531 0
 696 000a 01F07F01 		and	r1, r1, #127
 697              	.LVL64:
 698 000e 01EBC101 		add	r1, r1, r1, lsl #3
 699 0012 8A00     		lsls	r2, r1, #2
 700 0014 1344     		add	r3, r3, r2
 701              	.LVL65:
 702 0016 93F85602 		ldrb	r0, [r3, #598]	@ zero_extendqisi2
 703              	.LVL66:
 532:Src/usbd_conf.c ****   }
 533:Src/usbd_conf.c **** }
 704              		.loc 1 533 0
 705 001a 7047     		bx	lr
 706              	.LVL67:
 707              	.L55:
 527:Src/usbd_conf.c ****   }
 708              		.loc 1 527 0
 709 001c 01F07F01 		and	r1, r1, #127
 710              	.LVL68:
 711 0020 01EBC101 		add	r1, r1, r1, lsl #3
 712 0024 8A00     		lsls	r2, r1, #2
 713 0026 1344     		add	r3, r3, r2
 714              	.LVL69:
 715 0028 987D     		ldrb	r0, [r3, #22]	@ zero_extendqisi2
 716              	.LVL70:
ARM GAS  C:\Users\82057\AppData\Local\Temp\ccdxrmdp.s 			page 23


 717 002a 7047     		bx	lr
 718              		.cfi_endproc
 719              	.LFE160:
 721              		.section	.text.USBD_LL_GetRxDataSize,"ax",%progbits
 722              		.align	1
 723              		.global	USBD_LL_GetRxDataSize
 724              		.syntax unified
 725              		.thumb
 726              		.thumb_func
 727              		.fpu fpv4-sp-d16
 729              	USBD_LL_GetRxDataSize:
 730              	.LFB164:
 534:Src/usbd_conf.c **** 
 535:Src/usbd_conf.c **** /**
 536:Src/usbd_conf.c ****   * @brief  Assigns a USB address to the device.
 537:Src/usbd_conf.c ****   * @param  pdev: Device handle
 538:Src/usbd_conf.c ****   * @param  dev_addr: Device address
 539:Src/usbd_conf.c ****   * @retval USBD status
 540:Src/usbd_conf.c ****   */
 541:Src/usbd_conf.c **** USBD_StatusTypeDef USBD_LL_SetUSBAddress(USBD_HandleTypeDef *pdev, uint8_t dev_addr)
 542:Src/usbd_conf.c **** {
 543:Src/usbd_conf.c ****   HAL_StatusTypeDef hal_status = HAL_OK;
 544:Src/usbd_conf.c ****   USBD_StatusTypeDef usb_status = USBD_OK;
 545:Src/usbd_conf.c **** 
 546:Src/usbd_conf.c ****   hal_status = HAL_PCD_SetAddress(pdev->pData, dev_addr);
 547:Src/usbd_conf.c **** 
 548:Src/usbd_conf.c ****   usb_status =  USBD_Get_USB_Status(hal_status);
 549:Src/usbd_conf.c **** 
 550:Src/usbd_conf.c ****   return usb_status;
 551:Src/usbd_conf.c **** }
 552:Src/usbd_conf.c **** 
 553:Src/usbd_conf.c **** /**
 554:Src/usbd_conf.c ****   * @brief  Transmits data over an endpoint.
 555:Src/usbd_conf.c ****   * @param  pdev: Device handle
 556:Src/usbd_conf.c ****   * @param  ep_addr: Endpoint number
 557:Src/usbd_conf.c ****   * @param  pbuf: Pointer to data to be sent
 558:Src/usbd_conf.c ****   * @param  size: Data size
 559:Src/usbd_conf.c ****   * @retval USBD status
 560:Src/usbd_conf.c ****   */
 561:Src/usbd_conf.c **** USBD_StatusTypeDef USBD_LL_Transmit(USBD_HandleTypeDef *pdev, uint8_t ep_addr, uint8_t *pbuf, uint3
 562:Src/usbd_conf.c **** {
 563:Src/usbd_conf.c ****   HAL_StatusTypeDef hal_status = HAL_OK;
 564:Src/usbd_conf.c ****   USBD_StatusTypeDef usb_status = USBD_OK;
 565:Src/usbd_conf.c **** 
 566:Src/usbd_conf.c ****   hal_status = HAL_PCD_EP_Transmit(pdev->pData, ep_addr, pbuf, size);
 567:Src/usbd_conf.c **** 
 568:Src/usbd_conf.c ****   usb_status =  USBD_Get_USB_Status(hal_status);
 569:Src/usbd_conf.c **** 
 570:Src/usbd_conf.c ****   return usb_status;
 571:Src/usbd_conf.c **** }
 572:Src/usbd_conf.c **** 
 573:Src/usbd_conf.c **** /**
 574:Src/usbd_conf.c ****   * @brief  Prepares an endpoint for reception.
 575:Src/usbd_conf.c ****   * @param  pdev: Device handle
 576:Src/usbd_conf.c ****   * @param  ep_addr: Endpoint number
 577:Src/usbd_conf.c ****   * @param  pbuf: Pointer to data to be received
 578:Src/usbd_conf.c ****   * @param  size: Data size
ARM GAS  C:\Users\82057\AppData\Local\Temp\ccdxrmdp.s 			page 24


 579:Src/usbd_conf.c ****   * @retval USBD status
 580:Src/usbd_conf.c ****   */
 581:Src/usbd_conf.c **** USBD_StatusTypeDef USBD_LL_PrepareReceive(USBD_HandleTypeDef *pdev, uint8_t ep_addr, uint8_t *pbuf,
 582:Src/usbd_conf.c **** {
 583:Src/usbd_conf.c ****   HAL_StatusTypeDef hal_status = HAL_OK;
 584:Src/usbd_conf.c ****   USBD_StatusTypeDef usb_status = USBD_OK;
 585:Src/usbd_conf.c **** 
 586:Src/usbd_conf.c ****   hal_status = HAL_PCD_EP_Receive(pdev->pData, ep_addr, pbuf, size);
 587:Src/usbd_conf.c **** 
 588:Src/usbd_conf.c ****   usb_status =  USBD_Get_USB_Status(hal_status);
 589:Src/usbd_conf.c **** 
 590:Src/usbd_conf.c ****   return usb_status;
 591:Src/usbd_conf.c **** }
 592:Src/usbd_conf.c **** 
 593:Src/usbd_conf.c **** /**
 594:Src/usbd_conf.c ****   * @brief  Returns the last transferred packet size.
 595:Src/usbd_conf.c ****   * @param  pdev: Device handle
 596:Src/usbd_conf.c ****   * @param  ep_addr: Endpoint number
 597:Src/usbd_conf.c ****   * @retval Received Data Size
 598:Src/usbd_conf.c ****   */
 599:Src/usbd_conf.c **** uint32_t USBD_LL_GetRxDataSize(USBD_HandleTypeDef *pdev, uint8_t ep_addr)
 600:Src/usbd_conf.c **** {
 731              		.loc 1 600 0
 732              		.cfi_startproc
 733              		@ args = 0, pretend = 0, frame = 0
 734              		@ frame_needed = 0, uses_anonymous_args = 0
 735              	.LVL71:
 736 0000 08B5     		push	{r3, lr}
 737              	.LCFI17:
 738              		.cfi_def_cfa_offset 8
 739              		.cfi_offset 3, -8
 740              		.cfi_offset 14, -4
 601:Src/usbd_conf.c ****   return HAL_PCD_EP_GetRxCount((PCD_HandleTypeDef*) pdev->pData, ep_addr);
 741              		.loc 1 601 0
 742 0002 D0F8C802 		ldr	r0, [r0, #712]
 743              	.LVL72:
 744 0006 FFF7FEFF 		bl	HAL_PCD_EP_GetRxCount
 745              	.LVL73:
 602:Src/usbd_conf.c **** }
 746              		.loc 1 602 0
 747 000a 08BD     		pop	{r3, pc}
 748              		.cfi_endproc
 749              	.LFE164:
 751              		.section	.text.USBD_static_malloc,"ax",%progbits
 752              		.align	1
 753              		.global	USBD_static_malloc
 754              		.syntax unified
 755              		.thumb
 756              		.thumb_func
 757              		.fpu fpv4-sp-d16
 759              	USBD_static_malloc:
 760              	.LFB165:
 603:Src/usbd_conf.c **** 
 604:Src/usbd_conf.c **** #ifdef USBD_HS_TESTMODE_ENABLE
 605:Src/usbd_conf.c **** /**
 606:Src/usbd_conf.c ****   * @brief  Set High speed Test mode.
 607:Src/usbd_conf.c ****   * @param  pdev: Device handle
ARM GAS  C:\Users\82057\AppData\Local\Temp\ccdxrmdp.s 			page 25


 608:Src/usbd_conf.c ****   * @param  testmode: test mode
 609:Src/usbd_conf.c ****   * @retval USBD Status
 610:Src/usbd_conf.c ****   */
 611:Src/usbd_conf.c **** USBD_StatusTypeDef USBD_LL_SetTestMode(USBD_HandleTypeDef *pdev, uint8_t testmode)
 612:Src/usbd_conf.c **** {
 613:Src/usbd_conf.c ****   UNUSED(pdev);
 614:Src/usbd_conf.c ****   UNUSED(testmode);
 615:Src/usbd_conf.c **** 
 616:Src/usbd_conf.c ****   return USBD_OK;
 617:Src/usbd_conf.c **** }
 618:Src/usbd_conf.c **** #endif /* USBD_HS_TESTMODE_ENABLE */
 619:Src/usbd_conf.c **** 
 620:Src/usbd_conf.c **** /**
 621:Src/usbd_conf.c ****   * @brief  Static single allocation.
 622:Src/usbd_conf.c ****   * @param  size: Size of allocated memory
 623:Src/usbd_conf.c ****   * @retval None
 624:Src/usbd_conf.c ****   */
 625:Src/usbd_conf.c **** void *USBD_static_malloc(uint32_t size)
 626:Src/usbd_conf.c **** {
 761              		.loc 1 626 0
 762              		.cfi_startproc
 763              		@ args = 0, pretend = 0, frame = 0
 764              		@ frame_needed = 0, uses_anonymous_args = 0
 765              		@ link register save eliminated.
 766              	.LVL74:
 627:Src/usbd_conf.c ****   static uint32_t mem[(sizeof(USBD_CDC_HandleTypeDef)/4)+1];/* On 32-bit boundary */
 628:Src/usbd_conf.c ****   return mem;
 629:Src/usbd_conf.c **** }
 767              		.loc 1 629 0
 768 0000 0048     		ldr	r0, .L59
 769              	.LVL75:
 770 0002 7047     		bx	lr
 771              	.L60:
 772              		.align	2
 773              	.L59:
 774 0004 00000000 		.word	.LANCHOR0
 775              		.cfi_endproc
 776              	.LFE165:
 778              		.section	.text.USBD_static_free,"ax",%progbits
 779              		.align	1
 780              		.global	USBD_static_free
 781              		.syntax unified
 782              		.thumb
 783              		.thumb_func
 784              		.fpu fpv4-sp-d16
 786              	USBD_static_free:
 787              	.LFB166:
 630:Src/usbd_conf.c **** 
 631:Src/usbd_conf.c **** /**
 632:Src/usbd_conf.c ****   * @brief  Dummy memory free
 633:Src/usbd_conf.c ****   * @param  p: Pointer to allocated  memory address
 634:Src/usbd_conf.c ****   * @retval None
 635:Src/usbd_conf.c ****   */
 636:Src/usbd_conf.c **** void USBD_static_free(void *p)
 637:Src/usbd_conf.c **** {
 788              		.loc 1 637 0
 789              		.cfi_startproc
ARM GAS  C:\Users\82057\AppData\Local\Temp\ccdxrmdp.s 			page 26


 790              		@ args = 0, pretend = 0, frame = 0
 791              		@ frame_needed = 0, uses_anonymous_args = 0
 792              		@ link register save eliminated.
 793              	.LVL76:
 638:Src/usbd_conf.c **** 
 639:Src/usbd_conf.c **** }
 794              		.loc 1 639 0
 795 0000 7047     		bx	lr
 796              		.cfi_endproc
 797              	.LFE166:
 799              		.section	.text.USBD_LL_Delay,"ax",%progbits
 800              		.align	1
 801              		.global	USBD_LL_Delay
 802              		.syntax unified
 803              		.thumb
 804              		.thumb_func
 805              		.fpu fpv4-sp-d16
 807              	USBD_LL_Delay:
 808              	.LFB167:
 640:Src/usbd_conf.c **** 
 641:Src/usbd_conf.c **** /**
 642:Src/usbd_conf.c ****   * @brief  Delays routine for the USB Device Library.
 643:Src/usbd_conf.c ****   * @param  Delay: Delay in ms
 644:Src/usbd_conf.c ****   * @retval None
 645:Src/usbd_conf.c ****   */
 646:Src/usbd_conf.c **** void USBD_LL_Delay(uint32_t Delay)
 647:Src/usbd_conf.c **** {
 809              		.loc 1 647 0
 810              		.cfi_startproc
 811              		@ args = 0, pretend = 0, frame = 0
 812              		@ frame_needed = 0, uses_anonymous_args = 0
 813              	.LVL77:
 814 0000 08B5     		push	{r3, lr}
 815              	.LCFI18:
 816              		.cfi_def_cfa_offset 8
 817              		.cfi_offset 3, -8
 818              		.cfi_offset 14, -4
 648:Src/usbd_conf.c ****   HAL_Delay(Delay);
 819              		.loc 1 648 0
 820 0002 FFF7FEFF 		bl	HAL_Delay
 821              	.LVL78:
 649:Src/usbd_conf.c **** }
 822              		.loc 1 649 0
 823 0006 08BD     		pop	{r3, pc}
 824              		.cfi_endproc
 825              	.LFE167:
 827              		.section	.text.USBD_Get_USB_Status,"ax",%progbits
 828              		.align	1
 829              		.global	USBD_Get_USB_Status
 830              		.syntax unified
 831              		.thumb
 832              		.thumb_func
 833              		.fpu fpv4-sp-d16
 835              	USBD_Get_USB_Status:
 836              	.LFB168:
 650:Src/usbd_conf.c **** 
 651:Src/usbd_conf.c **** /**
ARM GAS  C:\Users\82057\AppData\Local\Temp\ccdxrmdp.s 			page 27


 652:Src/usbd_conf.c ****   * @brief  Returns the USB status depending on the HAL status:
 653:Src/usbd_conf.c ****   * @param  hal_status: HAL status
 654:Src/usbd_conf.c ****   * @retval USB status
 655:Src/usbd_conf.c ****   */
 656:Src/usbd_conf.c **** USBD_StatusTypeDef USBD_Get_USB_Status(HAL_StatusTypeDef hal_status)
 657:Src/usbd_conf.c **** {
 837              		.loc 1 657 0
 838              		.cfi_startproc
 839              		@ args = 0, pretend = 0, frame = 0
 840              		@ frame_needed = 0, uses_anonymous_args = 0
 841              		@ link register save eliminated.
 842              	.LVL79:
 658:Src/usbd_conf.c ****   USBD_StatusTypeDef usb_status = USBD_OK;
 659:Src/usbd_conf.c **** 
 660:Src/usbd_conf.c ****   switch (hal_status)
 843              		.loc 1 660 0
 844 0000 18B1     		cbz	r0, .L66
 845 0002 0228     		cmp	r0, #2
 846 0004 03D0     		beq	.L67
 661:Src/usbd_conf.c ****   {
 662:Src/usbd_conf.c ****     case HAL_OK :
 663:Src/usbd_conf.c ****       usb_status = USBD_OK;
 664:Src/usbd_conf.c ****     break;
 665:Src/usbd_conf.c ****     case HAL_ERROR :
 666:Src/usbd_conf.c ****       usb_status = USBD_FAIL;
 847              		.loc 1 666 0
 848 0006 0320     		movs	r0, #3
 849              	.LVL80:
 667:Src/usbd_conf.c ****     break;
 668:Src/usbd_conf.c ****     case HAL_BUSY :
 669:Src/usbd_conf.c ****       usb_status = USBD_BUSY;
 670:Src/usbd_conf.c ****     break;
 671:Src/usbd_conf.c ****     case HAL_TIMEOUT :
 672:Src/usbd_conf.c ****       usb_status = USBD_FAIL;
 673:Src/usbd_conf.c ****     break;
 674:Src/usbd_conf.c ****     default :
 675:Src/usbd_conf.c ****       usb_status = USBD_FAIL;
 676:Src/usbd_conf.c ****     break;
 677:Src/usbd_conf.c ****   }
 678:Src/usbd_conf.c ****   return usb_status;
 679:Src/usbd_conf.c **** }
 850              		.loc 1 679 0
 851 0008 7047     		bx	lr
 852              	.LVL81:
 853              	.L66:
 663:Src/usbd_conf.c ****     break;
 854              		.loc 1 663 0
 855 000a 0020     		movs	r0, #0
 856              	.LVL82:
 857 000c 7047     		bx	lr
 858              	.LVL83:
 859              	.L67:
 669:Src/usbd_conf.c ****     break;
 860              		.loc 1 669 0
 861 000e 0120     		movs	r0, #1
 862              	.LVL84:
 670:Src/usbd_conf.c ****     case HAL_TIMEOUT :
ARM GAS  C:\Users\82057\AppData\Local\Temp\ccdxrmdp.s 			page 28


 863              		.loc 1 670 0
 864 0010 7047     		bx	lr
 865              		.cfi_endproc
 866              	.LFE168:
 868              		.section	.text.USBD_LL_DeInit,"ax",%progbits
 869              		.align	1
 870              		.global	USBD_LL_DeInit
 871              		.syntax unified
 872              		.thumb
 873              		.thumb_func
 874              		.fpu fpv4-sp-d16
 876              	USBD_LL_DeInit:
 877              	.LFB152:
 378:Src/usbd_conf.c ****   HAL_StatusTypeDef hal_status = HAL_OK;
 878              		.loc 1 378 0
 879              		.cfi_startproc
 880              		@ args = 0, pretend = 0, frame = 0
 881              		@ frame_needed = 0, uses_anonymous_args = 0
 882              	.LVL85:
 883 0000 08B5     		push	{r3, lr}
 884              	.LCFI19:
 885              		.cfi_def_cfa_offset 8
 886              		.cfi_offset 3, -8
 887              		.cfi_offset 14, -4
 888              	.LVL86:
 382:Src/usbd_conf.c **** 
 889              		.loc 1 382 0
 890 0002 D0F8C802 		ldr	r0, [r0, #712]
 891              	.LVL87:
 892 0006 FFF7FEFF 		bl	HAL_PCD_DeInit
 893              	.LVL88:
 384:Src/usbd_conf.c **** 
 894              		.loc 1 384 0
 895 000a FFF7FEFF 		bl	USBD_Get_USB_Status
 896              	.LVL89:
 387:Src/usbd_conf.c **** 
 897              		.loc 1 387 0
 898 000e 08BD     		pop	{r3, pc}
 899              		.cfi_endproc
 900              	.LFE152:
 902              		.section	.text.USBD_LL_Start,"ax",%progbits
 903              		.align	1
 904              		.global	USBD_LL_Start
 905              		.syntax unified
 906              		.thumb
 907              		.thumb_func
 908              		.fpu fpv4-sp-d16
 910              	USBD_LL_Start:
 911              	.LFB153:
 395:Src/usbd_conf.c ****   HAL_StatusTypeDef hal_status = HAL_OK;
 912              		.loc 1 395 0
 913              		.cfi_startproc
 914              		@ args = 0, pretend = 0, frame = 0
 915              		@ frame_needed = 0, uses_anonymous_args = 0
 916              	.LVL90:
 917 0000 08B5     		push	{r3, lr}
 918              	.LCFI20:
ARM GAS  C:\Users\82057\AppData\Local\Temp\ccdxrmdp.s 			page 29


 919              		.cfi_def_cfa_offset 8
 920              		.cfi_offset 3, -8
 921              		.cfi_offset 14, -4
 922              	.LVL91:
 399:Src/usbd_conf.c **** 
 923              		.loc 1 399 0
 924 0002 D0F8C802 		ldr	r0, [r0, #712]
 925              	.LVL92:
 926 0006 FFF7FEFF 		bl	HAL_PCD_Start
 927              	.LVL93:
 401:Src/usbd_conf.c **** 
 928              		.loc 1 401 0
 929 000a FFF7FEFF 		bl	USBD_Get_USB_Status
 930              	.LVL94:
 404:Src/usbd_conf.c **** 
 931              		.loc 1 404 0
 932 000e 08BD     		pop	{r3, pc}
 933              		.cfi_endproc
 934              	.LFE153:
 936              		.section	.text.USBD_LL_Stop,"ax",%progbits
 937              		.align	1
 938              		.global	USBD_LL_Stop
 939              		.syntax unified
 940              		.thumb
 941              		.thumb_func
 942              		.fpu fpv4-sp-d16
 944              	USBD_LL_Stop:
 945              	.LFB154:
 412:Src/usbd_conf.c ****   HAL_StatusTypeDef hal_status = HAL_OK;
 946              		.loc 1 412 0
 947              		.cfi_startproc
 948              		@ args = 0, pretend = 0, frame = 0
 949              		@ frame_needed = 0, uses_anonymous_args = 0
 950              	.LVL95:
 951 0000 08B5     		push	{r3, lr}
 952              	.LCFI21:
 953              		.cfi_def_cfa_offset 8
 954              		.cfi_offset 3, -8
 955              		.cfi_offset 14, -4
 956              	.LVL96:
 416:Src/usbd_conf.c **** 
 957              		.loc 1 416 0
 958 0002 D0F8C802 		ldr	r0, [r0, #712]
 959              	.LVL97:
 960 0006 FFF7FEFF 		bl	HAL_PCD_Stop
 961              	.LVL98:
 418:Src/usbd_conf.c **** 
 962              		.loc 1 418 0
 963 000a FFF7FEFF 		bl	USBD_Get_USB_Status
 964              	.LVL99:
 421:Src/usbd_conf.c **** 
 965              		.loc 1 421 0
 966 000e 08BD     		pop	{r3, pc}
 967              		.cfi_endproc
 968              	.LFE154:
 970              		.section	.text.USBD_LL_OpenEP,"ax",%progbits
 971              		.align	1
ARM GAS  C:\Users\82057\AppData\Local\Temp\ccdxrmdp.s 			page 30


 972              		.global	USBD_LL_OpenEP
 973              		.syntax unified
 974              		.thumb
 975              		.thumb_func
 976              		.fpu fpv4-sp-d16
 978              	USBD_LL_OpenEP:
 979              	.LFB155:
 432:Src/usbd_conf.c ****   HAL_StatusTypeDef hal_status = HAL_OK;
 980              		.loc 1 432 0
 981              		.cfi_startproc
 982              		@ args = 0, pretend = 0, frame = 0
 983              		@ frame_needed = 0, uses_anonymous_args = 0
 984              	.LVL100:
 985 0000 10B5     		push	{r4, lr}
 986              	.LCFI22:
 987              		.cfi_def_cfa_offset 8
 988              		.cfi_offset 4, -8
 989              		.cfi_offset 14, -4
 990 0002 1C46     		mov	r4, r3
 991              	.LVL101:
 436:Src/usbd_conf.c **** 
 992              		.loc 1 436 0
 993 0004 1346     		mov	r3, r2
 994              	.LVL102:
 995 0006 2246     		mov	r2, r4
 996              	.LVL103:
 997 0008 D0F8C802 		ldr	r0, [r0, #712]
 998              	.LVL104:
 999 000c FFF7FEFF 		bl	HAL_PCD_EP_Open
 1000              	.LVL105:
 438:Src/usbd_conf.c **** 
 1001              		.loc 1 438 0
 1002 0010 FFF7FEFF 		bl	USBD_Get_USB_Status
 1003              	.LVL106:
 441:Src/usbd_conf.c **** 
 1004              		.loc 1 441 0
 1005 0014 10BD     		pop	{r4, pc}
 1006              		.cfi_endproc
 1007              	.LFE155:
 1009              		.section	.text.USBD_LL_CloseEP,"ax",%progbits
 1010              		.align	1
 1011              		.global	USBD_LL_CloseEP
 1012              		.syntax unified
 1013              		.thumb
 1014              		.thumb_func
 1015              		.fpu fpv4-sp-d16
 1017              	USBD_LL_CloseEP:
 1018              	.LFB156:
 450:Src/usbd_conf.c ****   HAL_StatusTypeDef hal_status = HAL_OK;
 1019              		.loc 1 450 0
 1020              		.cfi_startproc
 1021              		@ args = 0, pretend = 0, frame = 0
 1022              		@ frame_needed = 0, uses_anonymous_args = 0
 1023              	.LVL107:
 1024 0000 08B5     		push	{r3, lr}
 1025              	.LCFI23:
 1026              		.cfi_def_cfa_offset 8
ARM GAS  C:\Users\82057\AppData\Local\Temp\ccdxrmdp.s 			page 31


 1027              		.cfi_offset 3, -8
 1028              		.cfi_offset 14, -4
 1029              	.LVL108:
 454:Src/usbd_conf.c **** 
 1030              		.loc 1 454 0
 1031 0002 D0F8C802 		ldr	r0, [r0, #712]
 1032              	.LVL109:
 1033 0006 FFF7FEFF 		bl	HAL_PCD_EP_Close
 1034              	.LVL110:
 456:Src/usbd_conf.c **** 
 1035              		.loc 1 456 0
 1036 000a FFF7FEFF 		bl	USBD_Get_USB_Status
 1037              	.LVL111:
 459:Src/usbd_conf.c **** 
 1038              		.loc 1 459 0
 1039 000e 08BD     		pop	{r3, pc}
 1040              		.cfi_endproc
 1041              	.LFE156:
 1043              		.section	.text.USBD_LL_FlushEP,"ax",%progbits
 1044              		.align	1
 1045              		.global	USBD_LL_FlushEP
 1046              		.syntax unified
 1047              		.thumb
 1048              		.thumb_func
 1049              		.fpu fpv4-sp-d16
 1051              	USBD_LL_FlushEP:
 1052              	.LFB157:
 468:Src/usbd_conf.c ****   HAL_StatusTypeDef hal_status = HAL_OK;
 1053              		.loc 1 468 0
 1054              		.cfi_startproc
 1055              		@ args = 0, pretend = 0, frame = 0
 1056              		@ frame_needed = 0, uses_anonymous_args = 0
 1057              	.LVL112:
 1058 0000 08B5     		push	{r3, lr}
 1059              	.LCFI24:
 1060              		.cfi_def_cfa_offset 8
 1061              		.cfi_offset 3, -8
 1062              		.cfi_offset 14, -4
 1063              	.LVL113:
 472:Src/usbd_conf.c **** 
 1064              		.loc 1 472 0
 1065 0002 D0F8C802 		ldr	r0, [r0, #712]
 1066              	.LVL114:
 1067 0006 FFF7FEFF 		bl	HAL_PCD_EP_Flush
 1068              	.LVL115:
 474:Src/usbd_conf.c **** 
 1069              		.loc 1 474 0
 1070 000a FFF7FEFF 		bl	USBD_Get_USB_Status
 1071              	.LVL116:
 477:Src/usbd_conf.c **** 
 1072              		.loc 1 477 0
 1073 000e 08BD     		pop	{r3, pc}
 1074              		.cfi_endproc
 1075              	.LFE157:
 1077              		.section	.text.USBD_LL_StallEP,"ax",%progbits
 1078              		.align	1
 1079              		.global	USBD_LL_StallEP
ARM GAS  C:\Users\82057\AppData\Local\Temp\ccdxrmdp.s 			page 32


 1080              		.syntax unified
 1081              		.thumb
 1082              		.thumb_func
 1083              		.fpu fpv4-sp-d16
 1085              	USBD_LL_StallEP:
 1086              	.LFB158:
 486:Src/usbd_conf.c ****   HAL_StatusTypeDef hal_status = HAL_OK;
 1087              		.loc 1 486 0
 1088              		.cfi_startproc
 1089              		@ args = 0, pretend = 0, frame = 0
 1090              		@ frame_needed = 0, uses_anonymous_args = 0
 1091              	.LVL117:
 1092 0000 08B5     		push	{r3, lr}
 1093              	.LCFI25:
 1094              		.cfi_def_cfa_offset 8
 1095              		.cfi_offset 3, -8
 1096              		.cfi_offset 14, -4
 1097              	.LVL118:
 490:Src/usbd_conf.c **** 
 1098              		.loc 1 490 0
 1099 0002 D0F8C802 		ldr	r0, [r0, #712]
 1100              	.LVL119:
 1101 0006 FFF7FEFF 		bl	HAL_PCD_EP_SetStall
 1102              	.LVL120:
 492:Src/usbd_conf.c **** 
 1103              		.loc 1 492 0
 1104 000a FFF7FEFF 		bl	USBD_Get_USB_Status
 1105              	.LVL121:
 495:Src/usbd_conf.c **** 
 1106              		.loc 1 495 0
 1107 000e 08BD     		pop	{r3, pc}
 1108              		.cfi_endproc
 1109              	.LFE158:
 1111              		.section	.text.USBD_LL_ClearStallEP,"ax",%progbits
 1112              		.align	1
 1113              		.global	USBD_LL_ClearStallEP
 1114              		.syntax unified
 1115              		.thumb
 1116              		.thumb_func
 1117              		.fpu fpv4-sp-d16
 1119              	USBD_LL_ClearStallEP:
 1120              	.LFB159:
 504:Src/usbd_conf.c ****   HAL_StatusTypeDef hal_status = HAL_OK;
 1121              		.loc 1 504 0
 1122              		.cfi_startproc
 1123              		@ args = 0, pretend = 0, frame = 0
 1124              		@ frame_needed = 0, uses_anonymous_args = 0
 1125              	.LVL122:
 1126 0000 08B5     		push	{r3, lr}
 1127              	.LCFI26:
 1128              		.cfi_def_cfa_offset 8
 1129              		.cfi_offset 3, -8
 1130              		.cfi_offset 14, -4
 1131              	.LVL123:
 508:Src/usbd_conf.c **** 
 1132              		.loc 1 508 0
 1133 0002 D0F8C802 		ldr	r0, [r0, #712]
ARM GAS  C:\Users\82057\AppData\Local\Temp\ccdxrmdp.s 			page 33


 1134              	.LVL124:
 1135 0006 FFF7FEFF 		bl	HAL_PCD_EP_ClrStall
 1136              	.LVL125:
 510:Src/usbd_conf.c **** 
 1137              		.loc 1 510 0
 1138 000a FFF7FEFF 		bl	USBD_Get_USB_Status
 1139              	.LVL126:
 513:Src/usbd_conf.c **** 
 1140              		.loc 1 513 0
 1141 000e 08BD     		pop	{r3, pc}
 1142              		.cfi_endproc
 1143              	.LFE159:
 1145              		.section	.text.USBD_LL_SetUSBAddress,"ax",%progbits
 1146              		.align	1
 1147              		.global	USBD_LL_SetUSBAddress
 1148              		.syntax unified
 1149              		.thumb
 1150              		.thumb_func
 1151              		.fpu fpv4-sp-d16
 1153              	USBD_LL_SetUSBAddress:
 1154              	.LFB161:
 542:Src/usbd_conf.c ****   HAL_StatusTypeDef hal_status = HAL_OK;
 1155              		.loc 1 542 0
 1156              		.cfi_startproc
 1157              		@ args = 0, pretend = 0, frame = 0
 1158              		@ frame_needed = 0, uses_anonymous_args = 0
 1159              	.LVL127:
 1160 0000 08B5     		push	{r3, lr}
 1161              	.LCFI27:
 1162              		.cfi_def_cfa_offset 8
 1163              		.cfi_offset 3, -8
 1164              		.cfi_offset 14, -4
 1165              	.LVL128:
 546:Src/usbd_conf.c **** 
 1166              		.loc 1 546 0
 1167 0002 D0F8C802 		ldr	r0, [r0, #712]
 1168              	.LVL129:
 1169 0006 FFF7FEFF 		bl	HAL_PCD_SetAddress
 1170              	.LVL130:
 548:Src/usbd_conf.c **** 
 1171              		.loc 1 548 0
 1172 000a FFF7FEFF 		bl	USBD_Get_USB_Status
 1173              	.LVL131:
 551:Src/usbd_conf.c **** 
 1174              		.loc 1 551 0
 1175 000e 08BD     		pop	{r3, pc}
 1176              		.cfi_endproc
 1177              	.LFE161:
 1179              		.section	.text.USBD_LL_Transmit,"ax",%progbits
 1180              		.align	1
 1181              		.global	USBD_LL_Transmit
 1182              		.syntax unified
 1183              		.thumb
 1184              		.thumb_func
 1185              		.fpu fpv4-sp-d16
 1187              	USBD_LL_Transmit:
 1188              	.LFB162:
ARM GAS  C:\Users\82057\AppData\Local\Temp\ccdxrmdp.s 			page 34


 562:Src/usbd_conf.c ****   HAL_StatusTypeDef hal_status = HAL_OK;
 1189              		.loc 1 562 0
 1190              		.cfi_startproc
 1191              		@ args = 0, pretend = 0, frame = 0
 1192              		@ frame_needed = 0, uses_anonymous_args = 0
 1193              	.LVL132:
 1194 0000 08B5     		push	{r3, lr}
 1195              	.LCFI28:
 1196              		.cfi_def_cfa_offset 8
 1197              		.cfi_offset 3, -8
 1198              		.cfi_offset 14, -4
 1199              	.LVL133:
 566:Src/usbd_conf.c **** 
 1200              		.loc 1 566 0
 1201 0002 D0F8C802 		ldr	r0, [r0, #712]
 1202              	.LVL134:
 1203 0006 FFF7FEFF 		bl	HAL_PCD_EP_Transmit
 1204              	.LVL135:
 568:Src/usbd_conf.c **** 
 1205              		.loc 1 568 0
 1206 000a FFF7FEFF 		bl	USBD_Get_USB_Status
 1207              	.LVL136:
 571:Src/usbd_conf.c **** 
 1208              		.loc 1 571 0
 1209 000e 08BD     		pop	{r3, pc}
 1210              		.cfi_endproc
 1211              	.LFE162:
 1213              		.section	.text.USBD_LL_PrepareReceive,"ax",%progbits
 1214              		.align	1
 1215              		.global	USBD_LL_PrepareReceive
 1216              		.syntax unified
 1217              		.thumb
 1218              		.thumb_func
 1219              		.fpu fpv4-sp-d16
 1221              	USBD_LL_PrepareReceive:
 1222              	.LFB163:
 582:Src/usbd_conf.c ****   HAL_StatusTypeDef hal_status = HAL_OK;
 1223              		.loc 1 582 0
 1224              		.cfi_startproc
 1225              		@ args = 0, pretend = 0, frame = 0
 1226              		@ frame_needed = 0, uses_anonymous_args = 0
 1227              	.LVL137:
 1228 0000 08B5     		push	{r3, lr}
 1229              	.LCFI29:
 1230              		.cfi_def_cfa_offset 8
 1231              		.cfi_offset 3, -8
 1232              		.cfi_offset 14, -4
 1233              	.LVL138:
 586:Src/usbd_conf.c **** 
 1234              		.loc 1 586 0
 1235 0002 D0F8C802 		ldr	r0, [r0, #712]
 1236              	.LVL139:
 1237 0006 FFF7FEFF 		bl	HAL_PCD_EP_Receive
 1238              	.LVL140:
 588:Src/usbd_conf.c **** 
 1239              		.loc 1 588 0
 1240 000a FFF7FEFF 		bl	USBD_Get_USB_Status
ARM GAS  C:\Users\82057\AppData\Local\Temp\ccdxrmdp.s 			page 35


 1241              	.LVL141:
 591:Src/usbd_conf.c **** 
 1242              		.loc 1 591 0
 1243 000e 08BD     		pop	{r3, pc}
 1244              		.cfi_endproc
 1245              	.LFE163:
 1247              		.comm	hpcd_USB_OTG_FS,1252,4
 1248              		.section	.bss.mem.10390,"aw",%nobits
 1249              		.align	2
 1250              		.set	.LANCHOR0,. + 0
 1253              	mem.10390:
 1254 0000 00000000 		.space	544
 1254      00000000 
 1254      00000000 
 1254      00000000 
 1254      00000000 
 1255              		.text
 1256              	.Letext0:
 1257              		.file 2 "c:\\program files (x86)\\gnu tools arm embedded\\7 2018-q2-update\\arm-none-eabi\\include
 1258              		.file 3 "c:\\program files (x86)\\gnu tools arm embedded\\7 2018-q2-update\\arm-none-eabi\\include
 1259              		.file 4 "Drivers/CMSIS/Include/core_cm4.h"
 1260              		.file 5 "Drivers/CMSIS/Device/ST/STM32F4xx/Include/system_stm32f4xx.h"
 1261              		.file 6 "Drivers/CMSIS/Device/ST/STM32F4xx/Include/stm32f405xx.h"
 1262              		.file 7 "Drivers/CMSIS/Device/ST/STM32F4xx/Include/stm32f4xx.h"
 1263              		.file 8 "Drivers/STM32F4xx_HAL_Driver/Inc/stm32f4xx_hal_def.h"
 1264              		.file 9 "Drivers/STM32F4xx_HAL_Driver/Inc/stm32f4xx_hal_gpio.h"
 1265              		.file 10 "Drivers/STM32F4xx_HAL_Driver/Inc/stm32f4xx_ll_usb.h"
 1266              		.file 11 "Drivers/STM32F4xx_HAL_Driver/Inc/stm32f4xx_hal_pcd.h"
 1267              		.file 12 "Drivers/STM32F4xx_HAL_Driver/Inc/stm32f4xx_hal.h"
 1268              		.file 13 "c:\\program files (x86)\\gnu tools arm embedded\\7 2018-q2-update\\arm-none-eabi\\includ
 1269              		.file 14 "c:\\program files (x86)\\gnu tools arm embedded\\7 2018-q2-update\\arm-none-eabi\\includ
 1270              		.file 15 "c:\\program files (x86)\\gnu tools arm embedded\\7 2018-q2-update\\lib\\gcc\\arm-none-ea
 1271              		.file 16 "c:\\program files (x86)\\gnu tools arm embedded\\7 2018-q2-update\\arm-none-eabi\\includ
 1272              		.file 17 "c:\\program files (x86)\\gnu tools arm embedded\\7 2018-q2-update\\arm-none-eabi\\includ
 1273              		.file 18 "Middlewares/ST/STM32_USB_Device_Library/Core/Inc/usbd_def.h"
 1274              		.file 19 "Middlewares/ST/STM32_USB_Device_Library/Class/CDC/Inc/usbd_cdc.h"
 1275              		.file 20 "Drivers/STM32F4xx_HAL_Driver/Inc/stm32f4xx_hal_pcd_ex.h"
 1276              		.file 21 "Middlewares/ST/STM32_USB_Device_Library/Core/Inc/usbd_core.h"
 1277              		.file 22 "Drivers/STM32F4xx_HAL_Driver/Inc/stm32f4xx_hal_cortex.h"
ARM GAS  C:\Users\82057\AppData\Local\Temp\ccdxrmdp.s 			page 36

